(dp0
S'view2'
p1
(dp2
S'scale'
p3
F75.72457181598438
sS'fog_strength'
p4
I0
sS'transparency'
p5
I00
sS'fog_auto'
p6
I00
sS'quat'
p7
(lp8
F0.6909166670976885
aF-0.6327535715932585
aF-0.3476999512404315
aF-0.03690285451649277
asS'slab_auto'
p9
I00
sS'pos'
p10
(lp11
F-35.122112702283594
aF-41.328585007820266
aF-33.301215915435336
asS'customClipPlanes'
p12
(lp13
sS'slab_offset'
p14
I0
sS'clip_cap'
p15
I00
sS'fog_near'
p16
F-0.0
sS'slab_enabled'
p17
I00
sS'fog_enabled'
p18
I0
sS'slab_width'
p19
I10
sS'fog_far'
p20
F20.0
ssS'ampFinal06_model8'
p21
(idataobj
DataObjShadow
p22
(dp23
S'name'
p24
g21
sS'object_type'
p25
S'MolData'
p26
sS'objnames'
p27
(lp28
S'ampFinal06_model8MolDisp1'
p29
aS'ampFinal06_model8MolDisp2'
p30
aS'ampFinal06_model8SurfaceDispobj3'
p31
asS'filename'
p32
(lp33
S'FULLPATH'
p34
aS'C:/Users/eliez/OneDrive/Tesis y titulacion/Antimicrobial_Peptides_QSAR_Prediction_Project/PrediccionNovelPeptides/Modelamiento/06.WRRLKLFKTSKVKYIYKKKGSLVK\\ampFinal06-model8.pdb'
p35
ag35
asS'dataparams'
p36
(dp37
S'expanded'
p38
I1
sS'uuid'
p39
S'C9B3D85E8E684F54A74ACB618F946DBC'
p40
sS'mol_colour'
p41
S'grey'
p42
sS'check_graphs'
p43
I1
sg25
g26
sS'show_aromatic_rings'
p44
I1
sS'module'
p45
S'model'
p46
sg32
g33
sS'visible'
p47
I1
sS'customResCIFFiles'
p48
(dp49
sS'ccp4mg_creator_version'
p50
S'2.10.11'
p51
sS'model_symmetry'
p52
(dp53
S'symmetry_visible'
p54
(lp55
sS'symmetry_colours'
p56
(lp57
sS'MolDisp_selection'
p58
S'all atoms'
p59
sS'symmetry_MolDisp_objects'
p60
(lp61
sS'MolDisp_visible'
p62
I1
ssS'lastWizardRun'
p63
S'Ligand_binding_site:Site_and_ribbons_by_PDB_file'
p64
ssg47
I1
sS'objinsts'
p65
(lp66
(idataobj
DispObjShadow
p67
(dp68
S'colparams'
p69
(dp70
S'interface_MolData_name'
p71
S''
p72
sS'non_C_atomtype'
p73
I0
sS'colour_blend'
p74
(dp75
S'colours'
p76
(lp77
(lp78
S'blue'
p79
aS'red'
p80
aasS'selection_command'
p81
(lp82
S'peptide'
p83
asS'direction'
p84
(lp85
S'anti-clockwise'
p86
asS'default_colour'
p87
S'white'
p88
sS'group'
p89
S'residue'
p90
sS'type'
p91
S'all'
p92
ssS'one_colour'
p93
g72
sS'user_scheme'
p94
(lp95
S'Edited scheme'
p96
asS'stick_colour'
p97
S'ATOM'
p98
sS'colour_legend'
p99
S'<span style="color:;">User colour rules </span>\n</p><p><span style="color:red;">/*/*/(ALA,VAL,PRO,LEU,ILE </span>\n</p><p>'
p100
sS'interface_selection'
p101
g72
sS'colour_mode'
p102
S'rules'
p103
sS'colour_rules'
p104
(lp105
(lp106
S'blue'
p107
ag72
aa(lp108
S'red'
p109
a(lp110
NaS'/*/*/(ALA,VAL,PRO,LEU,ILE,MET,PHE,TRP)/*:*'
p111
aaasS'interface_style'
p112
S'RESIDUE'
p113
ssg24
g29
sg25
S'MolDisp'
p114
sg47
I0
sS'selparams'
p115
(dp116
S'features'
p117
g72
sS'symid'
p118
g72
sS'neighb_mol'
p119
g72
sS'ranges_neighb_invert'
p120
I0
sS'buried_sel'
p121
g72
sS'contact_mol'
p122
g72
sS'property_join'
p123
S'and'
p124
sS'neighb_rad'
p125
S'4.0'
p126
sS'select'
p127
S'cid'
p128
sS'restypes'
p129
(lp130
sS'ranges_neighb_cutoff'
p131
F4.0
sS'ranges_extend'
p132
I1
sS'nmr_models'
p133
(lp134
sS'ranges_neighb_model'
p135
g72
sS'sites'
p136
(lp137
sS'ranges_neighb_qualifier'
p138
g92
sS'neighb_excl_solvent'
p139
I0
sS'buried_mol'
p140
g72
sS'entities'
p141
(lp142
sS'same_as'
p143
I0
sS'secstr'
p144
(lp145
sS'neighb_hb'
p146
I0
sS'nglycosylation'
p147
(lp148
sS'chains'
p149
(lp150
sS'property_gt_value'
p151
(lp152
sS'alt_locs'
p153
(lp154
sS'contact_sel'
p155
g72
sS'property_gt_op'
p156
(lp157
sS'nothydrogen'
p158
I0
sS'buried_group'
p159
S'atom'
p160
sS'property_lt_value'
p161
(lp162
sS'as_MolDisp'
p163
g72
sS'ranges'
p164
(lp165
sS'elementtypes'
p166
(lp167
sS'neighb_excl_monomer'
p168
I0
sS'selection_scheme'
p169
g72
sS'ranges_qualifier'
p170
g72
sS'ligands'
p171
(lp172
sS'neighb_sel'
p173
g72
sS'use_all_models'
p174
I00
sS'neighb_sym'
p175
I0
sS'user_sel'
p176
g72
sg128
g83
sS'neighb_excl'
p177
I1
sS'property_lt_op'
p178
(lp179
sS'ranges_invert'
p180
I0
sS'atomtype'
p181
g72
sS'command'
p182
g83
sS'neighb_selobj'
p183
g72
sS'neighb_group'
p184
g90
sS'buried_and_selection'
p185
g72
sS'property'
p186
(lp187
sS'ranges_neighb_selection'
p188
g72
sS'oglycosylation'
p189
(lp190
ssS'params'
p191
(dp192
S'opacity'
p193
F1.0
sg39
S'48EB2901750E403895CF9803F6583FCD'
p194
sS'doCentralSymmetry'
p195
I01
sS'legend_visible'
p196
I0
sS'nbiomol'
p197
I-1
sg47
I0
sS'doSymmetry'
p198
I01
sS'customSelectionName'
p199
g72
sS'display_class'
p200
S'ribbon'
p201
sS'doBiomolecule'
p202
I00
sS'contact_MolDisp'
p203
g72
sS'label_params'
p204
(dp205
S'label_style'
p206
(lp207
I0
aI0
aI0
aI1
aI1
aI1
aI1
aI0
aI0
aI0
aI0
aI0
aI0
aI0
aI0
aI0
asS'label_user_oneperres'
p208
I1
sS'label_colour'
p209
S'complement'
p210
sS'truncate_mol_name'
p211
I0
sS'label_user_selparams'
p212
(dp213
sS'label_select'
p214
S'label_no'
p215
sS'truncate_mol_name_length'
p216
I6
sssS'styleparams'
p217
(dp218
S'style_mode'
p219
S'SPLINE'
p220
sS'inter_dispobj_bond'
p221
I1
ssba(idataobj
DispObjShadow
p222
(dp223
g69
(dp224
g71
g72
sg73
I0
sg74
(dp225
g76
g77
sg81
g82
sg84
g85
sg87
g88
sg89
g90
sg91
g92
ssg93
g72
sg94
(lp226
S'Edited scheme'
p227
asg97
g98
sg99
S'<p><span style="color:;">Atom type </span>\n</p><p><span style="color:green;">C  </span>\n<span style="color:red;">O  </span>\n<span style="color:blue;">N  </span>\n<span style="color:yellow;">S  </span>\n<span style="color:grey;">H  </span>\n<span style="color:magenta;">P  </span>\n</p>'
p228
sg101
g72
sg102
g181
sg104
(lp229
sg112
g113
ssg24
g30
sg25
g114
sg47
I0
sg115
(dp230
g117
g72
sg118
g72
sg119
g72
sg120
I0
sg121
g72
sg122
g72
sg123
g124
sg125
g126
sg127
g128
sg129
(lp231
sg131
F4.0
sg132
I1
sg133
(lp232
sg135
g72
sg136
(lp233
sg138
g92
sg139
I0
sg140
g72
sg141
(lp234
sg143
I0
sg144
(lp235
sg146
I0
sg147
(lp236
sg149
(lp237
sg151
(lp238
sg153
(lp239
sg155
g72
sg156
(lp240
sg158
I0
sg159
g160
sg161
(lp241
sg163
g72
sg164
(lp242
sg166
(lp243
sg168
I0
sg169
g72
sg170
g72
sg171
(lp244
sg173
g72
sg174
I00
sg175
I0
sg176
g72
sg128
g92
sg177
I1
sg178
(lp245
sg180
I0
sg181
g72
sg182
g92
sg183
g72
sg184
g90
sg185
g72
sg186
(lp246
sg188
g72
sg189
(lp247
ssg191
(dp248
g193
F1.0
sg39
S'8B079A2B89F240719DA1D80117560C53'
p249
sg195
I01
sg196
I0
sg197
I-1
sg47
I0
sg198
I01
sg199
g72
sg200
S'bonds'
p250
sg202
I00
sg203
g72
sg204
(dp251
g206
g207
sg208
I1
sg209
g210
sg211
I0
sg212
g213
sg214
g215
sg216
I6
sssg217
(dp252
g219
S'BONDS'
p253
sg221
I1
ssba(idataobj
DispObjShadow
p254
(dp255
g69
(dp256
g71
g72
sg73
I0
sg74
(dp257
g76
g77
sg81
g82
sg84
g85
sg87
g88
sg89
g90
sg91
g92
ssg93
g72
sg94
g226
sg97
g98
sg99
g72
sg101
g72
sg102
S'electrostatic'
p258
sg104
g229
sg112
g113
ssg24
g31
sg25
S'SurfaceDispobj'
p259
sg47
I0
sg115
(dp260
g117
g72
sg118
g72
sg119
g72
sg120
I0
sg121
g72
sg122
g72
sg123
g124
sg125
g126
sg127
g83
sg129
(lp261
sg131
F4.0
sg132
I1
sg133
(lp262
sg135
g72
sg136
(lp263
sg138
g92
sg139
I0
sg140
g72
sg141
(lp264
sg143
I0
sg144
(lp265
sg146
I0
sg147
(lp266
sg149
(lp267
sg151
(lp268
sg153
(lp269
sg155
g72
sg156
(lp270
sg158
I0
sg159
g160
sg161
(lp271
sg163
g72
sg164
(lp272
sg166
(lp273
sg168
I0
sg169
g72
sg170
g72
sg171
(lp274
sg173
g72
sg174
I00
sg175
I0
sg176
g72
sg128
g72
sg177
I1
sg178
(lp275
sg180
I0
sg181
g72
sg182
g83
sg183
g72
sg184
g90
sg185
g72
sg186
(lp276
sg188
g72
sg189
(lp277
ssg191
(dp278
g193
F1.0
sS'surface_type'
p279
S'normal'
p280
sg39
S'3FA320B9D390407CBAF0167441B66529'
p281
sg196
I0
sg47
I0
sS'surface_style'
p282
S'solid'
p283
sg199
g72
sg200
S'whole_surface'
p284
ssg217
(dp285
g117
g72
sg118
g72
sg119
g72
sg120
I0
sg121
g72
sg122
g72
sg123
g124
sg125
g126
sg127
g83
sg129
(lp286
sg131
F4.0
sg132
I1
sg133
(lp287
sg135
g72
sg136
(lp288
sg138
g92
sg139
I0
sg140
g72
sg141
(lp289
sg143
g31
sg144
(lp290
sg146
I0
sg147
(lp291
sg149
(lp292
sg151
(lp293
sg153
(lp294
sg155
g72
sg156
(lp295
sg158
I0
sg159
g160
sg161
(lp296
sg163
g72
sg164
(lp297
sg166
(lp298
sg168
I0
sg169
g72
sg170
g72
sg171
(lp299
sg173
g72
sg174
I00
sg175
I0
sg176
g72
sg128
g72
sg177
I1
sg178
(lp300
sg180
I0
sg181
g72
sg182
g83
sg183
g72
sg184
g90
sg185
g72
sg186
(lp301
sg188
g72
sg189
(lp302
ssbasbsS'plugins'
p303
(dp304
S'ShadersPlugin'
p305
(dp306
S'use_shadows'
p307
I0
sS'use_shaders'
p308
I0
sS'use_outline'
p309
I0
sS'use_ambocc'
p310
I0
ssS'Render'
p311
(dp312
S'scalebartext'
p313
I01
sS'stereo'
p314
I00
sS'save_status'
p315
I01
sS'dpi_spin'
p316
I300
sS'scaleFonts'
p317
I1
sS'stereo_sep'
p318
F0.1
sS'height_dpi_inches'
p319
F4.31
sS'height'
p320
I430
sS'stereo_angle'
p321
F6.0
sS'width'
p322
I600
sS'magnification'
p323
F1.0
sS'keepAspect'
p324
I1
sS'size_mode'
p325
S'dpi_defined'
p326
sS'scaleLines'
p327
I1
sS'stereo_mode'
p328
S'shear'
p329
sS'scaleImages'
p330
I1
sS'preview'
p331
I01
sS'transparent'
p332
I01
sS'renderParams'
p333
(dp334
S'ambocc_samples'
p335
I64
sS'save_rib'
p336
I00
sS'ambocc_scale'
p337
F1.0
sS'ambocc'
p338
I00
sS'smoothRibbons'
p339
I00
sS'raytrace'
p340
I01
ssS'width_dpi_inches'
p341
F6.0
ssS'GeometryPlugin'
p342
(dp343
S'atoms'
p344
(lp345
(lp346
asssS'ampFinal07_model79'
p347
(idataobj
DataObjShadow
p348
(dp349
g24
g347
sg25
g26
sg27
(lp350
S'ampFinal07_model79MolDisp1'
p351
aS'ampFinal07_model79MolDisp2'
p352
aS'ampFinal07_model79SurfaceDispobj3'
p353
asg32
(lp354
g34
aS'C:/Users/eliez/OneDrive/Tesis y titulacion/Antimicrobial_Peptides_QSAR_Prediction_Project/PrediccionNovelPeptides/Modelamiento/07.TRVLGGTKKRRGVKLGAIKKWTLLGIRVLPQKR\\ampFinal07-model79.pdb'
p355
ag355
asg36
(dp356
g38
I1
sg39
S'2A9FC92A0D314D0EAB7A1BD69CE20BF7'
p357
sg41
S'pink'
p358
sg43
I1
sg25
g26
sg44
I1
sg45
g46
sg32
g354
sg47
I1
sg48
g49
sg50
g51
sg52
(dp359
g54
(lp360
sg56
(lp361
sg58
g59
sg60
(lp362
sg62
I1
ssg63
S'Ligand_binding_site:Site_and_ribbons_by_PDB_file'
p363
ssg47
I1
sg65
(lp364
(idataobj
DispObjShadow
p365
(dp366
g69
(dp367
g71
g72
sg73
I0
sg74
(dp368
g76
g77
sg81
g82
sg84
g85
sg87
g88
sg89
g90
sg91
g92
ssg93
g72
sg94
(lp369
g96
asg97
g98
sg99
S'<span style="color:;">User colour rules </span>\n</p><p><span style="color:red;">/*/*/(ALA,VAL,PRO,LEU,ILE </span>\n</p><p>'
p370
sg101
g72
sg102
g103
sg104
(lp371
(lp372
S'blue'
p373
ag72
aa(lp374
S'red'
p375
a(lp376
NaS'/*/*/(ALA,VAL,PRO,LEU,ILE,MET,PHE,TRP)/*:*'
p377
aaasg112
g113
ssg24
g351
sg25
g114
sg47
I0
sg115
(dp378
g117
g72
sg118
g72
sg119
g72
sg120
I0
sg121
g72
sg122
g72
sg123
g124
sg125
g126
sg127
g128
sg129
(lp379
sg131
F4.0
sg132
I1
sg133
(lp380
sg135
g72
sg136
(lp381
sg138
g92
sg139
I0
sg140
g72
sg141
(lp382
sg143
I0
sg144
(lp383
sg146
I0
sg147
(lp384
sg149
(lp385
sg151
(lp386
sg153
(lp387
sg155
g72
sg156
(lp388
sg158
I0
sg159
g160
sg161
(lp389
sg163
g72
sg164
(lp390
sg166
(lp391
sg168
I0
sg169
g72
sg170
g72
sg171
(lp392
sg173
g72
sg174
I00
sg175
I0
sg176
g72
sg128
g83
sg177
I1
sg178
(lp393
sg180
I0
sg181
g72
sg182
g83
sg183
g72
sg184
g90
sg185
g72
sg186
(lp394
sg188
g72
sg189
(lp395
ssg191
(dp396
g193
F1.0
sg39
S'A03D687B63D343B2BC4AC03AE2B560A7'
p397
sg195
I01
sg196
I0
sg197
I-1
sg47
I0
sg198
I01
sg199
g72
sg200
g201
sg202
I00
sg203
g72
sg204
(dp398
g206
g207
sg208
I1
sg209
g210
sg211
I0
sg212
g213
sg214
g215
sg216
I6
sssg217
(dp399
g219
g220
sg221
I1
ssba(idataobj
DispObjShadow
p400
(dp401
g69
(dp402
g71
g72
sg73
I0
sg74
(dp403
g76
g77
sg81
g82
sg84
g85
sg87
g88
sg89
g90
sg91
g92
ssg93
g72
sg94
g226
sg97
g98
sg99
g72
sg101
g72
sg102
g181
sg104
g229
sg112
g113
ssg24
g352
sg25
g114
sg47
I0
sg115
(dp404
g117
g72
sg118
g72
sg119
g72
sg120
I0
sg121
g72
sg122
g72
sg123
g124
sg125
g126
sg127
g128
sg129
(lp405
sg131
F4.0
sg132
I1
sg133
(lp406
sg135
g72
sg136
(lp407
sg138
g92
sg139
I0
sg140
g72
sg141
(lp408
sg143
I0
sg144
(lp409
sg146
I0
sg147
(lp410
sg149
(lp411
sg151
(lp412
sg153
(lp413
sg155
g72
sg156
(lp414
sg158
I0
sg159
g160
sg161
(lp415
sg163
g72
sg164
(lp416
sg166
(lp417
sg168
I0
sg169
g72
sg170
g72
sg171
(lp418
sg173
g72
sg174
I00
sg175
I0
sg176
g72
sg128
g92
sg177
I1
sg178
(lp419
sg180
I0
sg181
g72
sg182
g92
sg183
g72
sg184
g90
sg185
g72
sg186
(lp420
sg188
g72
sg189
(lp421
ssg191
(dp422
g193
F1.0
sg39
S'373744A6046D4C4BBE1ACDD9391E3440'
p423
sg195
I01
sg196
I0
sg197
I-1
sg47
I0
sg198
I01
sg199
g72
sg200
g250
sg202
I00
sg203
g72
sg204
(dp424
g206
g207
sg208
I1
sg209
g210
sg211
I0
sg212
g213
sg214
g215
sg216
I6
sssg217
(dp425
g219
g253
sg221
I1
ssba(idataobj
DispObjShadow
p426
(dp427
g69
(dp428
g71
g72
sg73
I0
sg74
(dp429
g76
g77
sg81
g82
sg84
g85
sg87
g88
sg89
g90
sg91
g92
ssg93
g72
sg94
g226
sg97
g98
sg99
g72
sg101
g72
sg102
g258
sg104
g229
sg112
g113
ssg24
g353
sg25
g259
sg47
I0
sg115
(dp430
g117
g72
sg118
g72
sg119
g72
sg120
I0
sg121
g72
sg122
g72
sg123
g124
sg125
g126
sg127
g83
sg129
(lp431
sg131
F4.0
sg132
I1
sg133
(lp432
sg135
g72
sg136
(lp433
sg138
g92
sg139
I0
sg140
g72
sg141
(lp434
sg143
I0
sg144
(lp435
sg146
I0
sg147
(lp436
sg149
(lp437
sg151
(lp438
sg153
(lp439
sg155
g72
sg156
(lp440
sg158
I0
sg159
g160
sg161
(lp441
sg163
g72
sg164
(lp442
sg166
(lp443
sg168
I0
sg169
g72
sg170
g72
sg171
(lp444
sg173
g72
sg174
I00
sg175
I0
sg176
g72
sg128
g72
sg177
I1
sg178
(lp445
sg180
I0
sg181
g72
sg182
g83
sg183
g72
sg184
g90
sg185
g72
sg186
(lp446
sg188
g72
sg189
(lp447
ssg191
(dp448
g193
F1.0
sg279
g280
sg39
S'008E3BB2383B4B96A92E5ACC0D178294'
p449
sg196
I0
sg47
I0
sg282
g283
sg199
g72
sg200
g284
ssg217
(dp450
g117
g72
sg118
g72
sg119
g72
sg120
I0
sg121
g72
sg122
g72
sg123
g124
sg125
g126
sg127
g83
sg129
(lp451
sg131
F4.0
sg132
I1
sg133
(lp452
sg135
g72
sg136
(lp453
sg138
g92
sg139
I0
sg140
g72
sg141
(lp454
sg143
g353
sg144
(lp455
sg146
I0
sg147
(lp456
sg149
(lp457
sg151
(lp458
sg153
(lp459
sg155
g72
sg156
(lp460
sg158
I0
sg159
g160
sg161
(lp461
sg163
g72
sg164
(lp462
sg166
(lp463
sg168
I0
sg169
g72
sg170
g72
sg171
(lp464
sg173
g72
sg174
I00
sg175
I0
sg176
g72
sg128
g72
sg177
I1
sg178
(lp465
sg180
I0
sg181
g72
sg182
g83
sg183
g72
sg184
g90
sg185
g72
sg186
(lp466
sg188
g72
sg189
(lp467
ssbasbsS'params2'
p468
(dp469
S'socket_preferences'
p470
(dp471
S'local_only'
p472
I1
sS'open_socket'
p473
I0
ssS'save_session_options'
p474
(dp475
S'backup_data_files'
p476
I0
sS'restore_data'
p477
I1
sS'interpret_old_selections'
p478
I1
sS'save_projects'
p479
I0
sS'ask_restore_data'
p480
I0
ssS'download_preferences'
p481
(dp482
S'PDBJapan_Search'
p483
S'pdbjs3.protein.osaka-u.ac.jp/xPSSS/index.html'
p484
sS'RCSB_Download_CIF'
p485
S'http://www.rcsb.org/pdb/files/PDBID.cif'
p486
sS'EBI_Download_CIF'
p487
S'https://www.ebi.ac.uk/pdbe/entry-files/download/PDBID.cif'
p488
sS'http_proxy'
p489
g72
sS'PDBJapan_Download_PDB'
p490
S'ftp://www.pdbj.org/pdb_nc/pdbPDBID.ent'
p491
sS'preferred_site'
p492
S'EBI'
p493
sS'EBI_Download_PDB'
p494
S'https://www.ebi.ac.uk/pdbe/entry-files/download/pdbPDBID.ent'
p495
sS'RCSB_Search'
p496
S'www.rcsb.org/pdb'
p497
sS'PDBJapan_Download_CIF'
p498
S'ftp://ftp.pdbj.org/mmcif/PDBID.cif.gz'
p499
sS'http_user'
p500
g72
sS'RCSB_Download_PDB'
p501
S'http://www.rcsb.org/pdb/files/PDBID.pdb'
p502
sS'http_password'
p503
g72
sS'EBI_Search'
p504
S'www.ebi.ac.uk/msd-srv/msdlite/index.html'
p505
ssS'HBond_param'
p506
(dp507
S'min_D_H_A'
p508
F90.0
sS'max_H_A'
p509
F2.5
sS'min_D_A_AA'
p510
F90.0
sS'max_D_A'
p511
F3.1
sS'max_D_A_S'
p512
F3.9
sS'min_H_A_AA'
p513
F90.0
sS'min_DD_D_A'
p514
F90.0
sS'min_D_A'
p515
F2.0
ssS'MapDispParamsManager'
p516
(dp517
S'inside_shiny'
p518
I1
sS'line_width'
p519
F1.0
sS'surface_style'
p520
S'surface_style_chickenwire'
p521
sS'contour_sigma_max'
p522
F5.0
sS'cylinder_width'
p523
F0.03
sS'dot_size'
p524
F1.0
sS'double_side'
p525
I0
sS'ncontours'
p526
I1
sS'inside_colour'
p527
S'default'
p528
sS'other_colour'
p529
S'magenta'
p530
sS'diff_pos_colour'
p531
S'green'
p532
sS'radius'
p533
F10.0
sS'dot_spacing'
p534
F0.3
sS'diff_neg_colour'
p535
S'red'
p536
sS'sampling_rate'
p537
F0.75
sS'contour_scale'
p538
S'absolute'
p539
sS'first_colour'
p540
S'blue'
p541
ssS'Surface_electro'
p542
(dp543
g164
(lp544
F0.0
aF-0.5
aF0.0
aF0.5
aF0.0
asg76
(lp545
S'red'
p546
aS'red'
p547
aS'white'
p548
aS'blue'
p549
aS'blue'
p550
asS'colour_wheel_direction'
p551
S'clockwise'
p552
sS'interpolate_mode'
p553
S'HSV'
p554
ssS'atom_label_params'
p555
(dp556
g211
I0
sS'show_number_label'
p557
I0
sg214
g215
sg216
I6
sg206
g207
ssS'SecStr_param'
p558
(dp559
S'min_helix_length'
p560
I4
sS'flagBulge'
p561
I1
ssS'geometry_preferences'
p562
(dp563
S'style'
p564
S'Line'
p565
sS'single_click_label'
p566
I1
sS'angles_dp'
p567
I1
sS'width'
p568
I4
sS'bonds_dp'
p569
I2
sS'show_angles'
p570
I0
sS'show_torsions'
p571
I0
sS'line_colour'
p572
S'red'
p573
sS'text_colour'
p574
S'default'
p575
ssS'render_quality'
p576
(dp577
S'use_vbo'
p578
I1
sS'use_ambocc'
p579
I0
sS'smooth_line'
p580
I1
sS'use_outline'
p581
I0
sS'force_use_va'
p582
I1
sS'use_shadows'
p583
I0
sS'use_shaders'
p584
I0
sS'solid_quality'
p585
I1
ssS'centre_mode'
p586
(dp587
S'centre_method'
p588
I0
ssS'screenshot_preferences'
p589
(dp590
S'offscreen'
p591
I1
sS'antialias'
p592
I1
ssS'miscell_prefs'
p593
(dp594
S'text_label_background'
p595
I0
sS'flip_text'
p596
I0
sS'fog_text'
p597
I0
sS'depth_text'
p598
I0
sS'text_label_background_colour'
p599
g88
ssS'Surface_map'
p600
(dp601
g164
(lp602
F0.0
aF-0.5
aF0.0
aF0.5
aF0.0
asg76
(lp603
S'red'
p604
aS'red'
p605
aS'white'
p606
aS'blue'
p607
aS'blue'
p608
asg551
g552
sg553
g554
ssS'ambient_occlusion_prefs'
p609
(dp610
S'ambocc_znear'
p611
F100.0
sS'ambocc_bias'
p612
F0.3
sS'ambocc_radius'
p613
F15.0
sS'ambocc_scale'
p614
F1.0
sS'ambocc_zfar'
p615
F150.0
ssS'Animation_param'
p616
(dp617
S'delay'
p618
F0.1
sS'flash_delay'
p619
F0.5
sS'update_properties'
p620
I1
ssS'model_drawing_style'
p621
(dp622
S'fat_bond_width'
p623
I4
sS'bond_width'
p624
I2
sS'thin_bond_width'
p625
I1
sS'glycoblock_interaction_dash_length'
p626
F0.36
sS'arrow_length'
p627
F2.2
sS'anisou_scale_byvdw'
p628
I0
sS'grey_ribbon_edge'
p629
I0
sS'worm_width'
p630
F0.2
sS'glycoblock_interaction_line_width'
p631
I2
sS'loop_frac'
p632
I1
sS'dashed_bond_length'
p633
F0.3
sS'dashed_bonds'
p634
I0
sS'glycoblock_interaction_cylinder_radius'
p635
F0.1
sS'glycoblock_draw_cov_protein_interactions'
p636
I1
sS'ballstick_stick'
p637
F0.1
sS'glycoblock_interaction_style'
p638
S'Dashed cylinder'
p639
sS'helix_style'
p640
I0
sS'helix_tube_diameter'
p641
F1.5
sS'sphere_radii_scale'
p642
F1.0
sS'base_block_thickness'
p643
F0.2
sS'anisou_style'
p644
S'solidaxes'
p645
sS'ball_radii_scale'
p646
F0.2
sS'deloc_ring'
p647
I0
sS'anisou_scale'
p648
F1.0
sS'flatten_loop'
p649
I0
sS'glycoblock_scale'
p650
F1.3
sS'glycoblock_interaction_colour'
p651
S'black'
p652
sS'flatten_beta'
p653
I1
sS'ribbon_width'
p654
F2.5
sS'glycoblock_stick_colour'
p655
g652
sS'nucleic_stick_width'
p656
F0.4
sS'glycoblock_label_protein_interactions'
p657
I0
sS'show_multiple_bonds'
p658
I0
sS'arrow_width'
p659
F2.2
sS'glycoblock_draw_protein_interactions'
p660
I0
sS'trace_cutoff'
p661
F4.8
sS'alpha_helix_width'
p662
F1.5
sS'pyramid_size'
p663
F0.1
sS'spline_beta_flat'
p664
I1
sS'cylinder_width'
p665
F0.2
sS'glycoblock_thickness'
p666
F0.35
sS'two_colour_ribbon'
p667
I0
sS'ribbon_style'
p668
I0
ssS'hydrophobicity_preferences'
p669
(dp670
sS'Contacts_param'
p671
(dp672
S'test_VDW_radius'
p673
I0
sS'VDW_fraction_min'
p674
F0.0
sS'simple_min_cutoff'
p675
F0.0
sS'label_VDW_radius'
p676
I0
sS'exclude_hbondable'
p677
I0
sS'simple_max_cutoff'
p678
F4.0
sS'VDW_fraction_max'
p679
F0.9
sS'test_metal_coord_distance'
p680
I1
ssS'HBond_drawing_style'
p681
(dp682
g519
I2
sS'contacts_line_style'
p683
S'lines'
p684
sS'label_mode'
p685
I0
sS'contacts_label_mode'
p686
I1
sS'contacts_line_width'
p687
I2
sS'line_style'
p688
g684
ssS'stereo_prefs'
p689
(dp690
S'stereo_mode'
p691
I1
sS'shear_sep'
p692
F0.1
sS'rot_sep'
p693
F6.0
ssS'restype'
p694
(dp695
g164
(lp696
S'*'
p697
aS'PHE'
p698
aS'TRP'
p699
aS'TYR'
p700
aS'PRO'
p701
aS'VAL'
p702
aS'ALA'
p703
aS'ILE'
p704
aS'LEU'
p705
aS'SER'
p706
aS'THR'
p707
aS'ASN'
p708
aS'GLN'
p709
aS'ARG'
p710
aS'LYS'
p711
aS'ASP'
p712
aS'GLU'
p713
aS'CYS'
p714
aS'MET'
p715
aS'GLY'
p716
aS'HIS'
p717
aS'A'
p718
aS'T'
p719
aS'G'
p720
aS'C'
p721
aS'U'
p722
aS'DA'
p723
aS'DT'
p724
aS'DG'
p725
aS'DC'
p726
aS'ADE'
p727
aS'THY'
p728
aS'GUA'
p729
aS'CYT'
p730
aS'URA'
p731
aS'BMA'
p732
aS'MAN'
p733
aS'NAG'
p734
aS'GLC'
p735
aS'BGC'
p736
aS'GCS'
p737
aS'GAL'
p738
aS'NGA'
p739
aS'MGC'
p740
aS'NG1'
p741
aS'NG6'
p742
aS'A2G'
p743
aS'6MN'
p744
aS'GLP'
p745
aS'GP4'
p746
aS'BEM'
p747
aS'KDN'
p748
aS'XLS'
p749
aS'CXY'
p750
aS'RBY'
p751
aS'TDX'
p752
aS'XYL'
p753
aS'XYS'
p754
aS'XYP'
p755
aS'FCA'
p756
aS'FCB'
p757
aS'FUC'
p758
aS'GTR'
p759
aS'ADA'
p760
aS'DGU'
p761
aS'SI3'
p762
aS'NCC'
p763
aS'NGF'
p764
aS'NGE'
p765
aS'NGC'
p766
aS'GC4'
p767
aS'GCD'
p768
aS'GCU'
p769
aS'GCV'
p770
aS'GCW'
p771
aS'IDS'
p772
aS'REL'
p773
aS'IDR'
p774
aS'SIA'
p775
asg76
(lp776
S'grey'
p777
aS'magenta'
p778
aS'magenta'
p779
aS'magenta'
p780
aS'coral'
p781
aS'coral'
p782
aS'coral'
p783
aS'coral'
p784
aS'coral'
p785
aS'cyan'
p786
aS'cyan'
p787
aS'cyan'
p788
aS'cyan'
p789
aS'blue'
p790
aS'blue'
p791
aS'red'
p792
aS'red'
p793
aS'yellow'
p794
aS'yellow'
p795
aS'white'
p796
aS'light blue'
p797
aS'red'
p798
aS'yellow'
p799
aS'green'
p800
aS'blue'
p801
aS'magenta'
p802
aS'red'
p803
aS'yellow'
p804
aS'green'
p805
aS'blue'
p806
aS'red'
p807
aS'yellow'
p808
aS'green'
p809
aS'blue'
p810
aS'magenta'
p811
aS'green'
p812
aS'green'
p813
aS'blue'
p814
aS'blue'
p815
aS'blue'
p816
aS'blue'
p817
aS'yellow'
p818
aS'yellow'
p819
aS'yellow'
p820
aS'yellow'
p821
aS'yellow'
p822
aS'yellow'
p823
aS'blue'
p824
aS'blue'
p825
aS'blue'
p826
aS'green'
p827
aS'light green'
p828
aS'coral'
p829
aS'coral'
p830
aS'coral'
p831
aS'coral'
p832
aS'coral'
p833
aS'coral'
p834
aS'coral'
p835
aS'red'
p836
aS'red'
p837
aS'red'
p838
aS'yellow'
p839
aS'yellow'
p840
aS'yellow'
p841
aS'purple'
p842
aS'purple'
p843
aS'light blue'
p844
aS'light blue'
p845
aS'light blue'
p846
aS'blue'
p847
aS'blue'
p848
aS'blue'
p849
aS'blue'
p850
aS'blue'
p851
aS'blue'
p852
aS'blue'
p853
aS'pale brown'
p854
aS'purple'
p855
asg551
S'clockwise'
p856
sg553
S'HSV'
p857
ssS'smiles_preferences'
p858
(dp859
S'niter'
p860
I200
sS'nconf'
p861
I20
ssS'surface_drawing_style'
p862
(dp863
S'inside_shiny'
p864
I1
sS'line_width'
p865
F1.0
sS'probe_radius'
p866
F1.5
sS'resolution_delta'
p867
I30
sS'dot_spacing'
p868
F0.1
sS'blend_edges'
p869
I0
sS'dot_size'
p870
F1.0
sS'double_side'
p871
I0
sS'inside_colour'
p872
S'default'
p873
sS'context_cutoff'
p874
F6.0
sS'warning_on'
p875
I1
sS'warning_limit'
p876
I1000
ssS'sequence_preferences'
p877
(dp878
S'muscle_exe'
p879
g72
sS'cobalt_dir'
p880
g72
sS'colouring_mode'
p881
I0
sS'blastdb_exe'
p882
g72
sS'cobalt_exe'
p883
g72
sS'mrbump_ccp4_dir'
p884
g72
sS'min_seq_length'
p885
I10
sS'blast_db'
p886
g72
sS'blastp_exe'
p887
g72
sS'font_size'
p888
I12
sS'blastn_exe'
p889
g72
sS'allow_remote_blast'
p890
I0
ssS'advanced_options'
p891
(dp892
S'iconized_display_table'
p893
I0
sS'super_compact_display_table'
p894
I0
sS'dockable_display_table'
p895
I1
sS'developer_mode'
p896
I0
ssS'atomtype'
p897
(dp898
g164
(lp899
g697
aS' C'
p900
aS' O'
p901
aS' N'
p902
aS' S'
p903
aS' H'
p904
aS' P'
p905
asg76
(lp906
S'grey'
p907
aS'green'
p908
aS'red'
p909
aS'blue'
p910
aS'yellow'
p911
aS'grey'
p912
aS'magenta'
p913
asg551
g856
sg553
g857
ssS'secstr'
p914
(dp915
g164
(lp916
S'No structure'
p917
aS'Beta strand'
p918
aS'Beta bulge'
p919
aS'3-turn'
p920
aS'4-turn'
p921
aS'5-turn'
p922
aS'Alpha helix'
p923
asg76
(lp924
S'grey'
p925
aS'blue'
p926
aS'blue'
p927
aS'pink'
p928
aS'tan'
p929
aS'coral'
p930
aS'red'
p931
asg551
g856
sg553
g857
ssS'SASArea_param'
p932
(dp933
S'list_selection_2'
p934
g72
sS'exclude_non_polymer'
p935
I1
sS'brick_margin'
p936
F5.0
sS'list_selection_1'
p937
S'polar_atoms'
p938
sS'limit_selection'
p939
S'amino_acid'
p940
sS'HOHrad'
p941
F1.4
sS'point_density'
p942
F1.0
sS'exclude_solvent'
p943
I1
ssS'movie_preferences'
p944
(dp945
S'show_progress'
p946
I1
sS'player_exe'
p947
S'mplayer'
p948
sS'ffmpeg_exe'
p949
S'ffmpeg'
p950
sS'mencoder_exe'
p951
S'mencoder'
p952
sS'player_command'
p953
S'-loop 0'
p954
sS'convert_command'
p955
S'-quality 100'
p956
sS'mencoder_merge_command'
p957
S'-ovc copy'
p958
sS'convert_exe'
p959
S'convert'
p960
sS'mencoder_command'
p961
S'-ovc lavc -lavcopts vcodec=msmpeg4v2:vbitrate=1800'
p962
sS'ffmpeg_command'
p963
S'-f mpeg -vcodec mpeg1video -ar 48000 -b 7000000 -ab 192000 -y'
p964
sssS'COLOUR'
p965
(lp966
(lp967
(lp968
g528
a(lp969
F1.0
aF1.0
aF1.0
aF1.0
aaa(lp970
S'ice blue'
p971
a(lp972
F0.61
aF0.69
aF1.0
aF1.0
aaa(lp973
S'gold'
p974
a(lp975
F0.7
aF0.69
aF0.24
aF1.0
aaa(lp976
S'coral'
p977
a(lp978
F1.0
aF0.5
aF0.31
aF1.0
aaa(lp979
g42
a(lp980
F0.5
aF0.5
aF0.5
aF1.0
aaa(lp981
g358
a(lp982
F1.0
aF0.57
aF1.0
aF1.0
aaa(lp983
S'sea green'
p984
a(lp985
F0.5
aF0.73
aF0.71
aF1.0
aaa(lp986
S'pale brown'
p987
a(lp988
F0.66
aF0.49
aF0.37
aF1.0
aaa(lp989
S'lilac'
p990
a(lp991
F0.68
aF0.53
aF0.73
aF1.0
aaa(lp992
S'lemon'
p993
a(lp994
F1.0
aF1.0
aF0.5
aF1.0
aaa(lp995
S'lawn green'
p996
a(lp997
F0.27
aF0.61
aF0.31
aF1.0
aaa(lp998
S'pale crimson'
p999
a(lp1000
F0.82
aF0.24
aF0.24
aF1.0
aaa(lp1001
S'light blue'
p1002
a(lp1003
F0.25
aF0.6
aF0.88
aF1.0
aaa(lp1004
S'tan'
p1005
a(lp1006
F0.47
aF0.0
aF0.0
aF1.0
aaa(lp1007
S'light green'
p1008
a(lp1009
F0.6
aF1.0
aF0.6
aF1.0
aaa(lp1010
S'yellow'
p1011
a(lp1012
F1.0
aF1.0
aF0.0
aF1.0
aaa(lp1013
S'white'
p1014
a(lp1015
F1.0
aF1.0
aF1.0
aF1.0
aaa(lp1016
g541
a(lp1017
F0.0
aF0.0
aF1.0
aF1.0
aaa(lp1018
g536
a(lp1019
F1.0
aF0.0
aF0.0
aF1.0
aaa(lp1020
g532
a(lp1021
F0.0
aF1.0
aF0.0
aF1.0
aaa(lp1022
g530
a(lp1023
F1.0
aF0.0
aF1.0
aF1.0
aaa(lp1024
S'cyan'
p1025
a(lp1026
F0.0
aF1.0
aF0.88
aF1.0
aaa(lp1027
S'purple'
p1028
a(lp1029
F0.58
aF0.0
aF1.0
aF1.0
aaa(lp1030
S'dark purple'
p1031
a(lp1032
F0.57
aF0.13
aF0.34
aF1.0
aaa(lp1033
S'dark cyan'
p1034
a(lp1035
F0.06
aF0.58
aF0.65
aF1.0
aaa(lp1036
S'black'
p1037
a(lp1038
F0.0
aF0.0
aF0.0
aF1.0
aaa(lp1039
S'alice blue'
p1040
a(lp1041
F0.94
aF0.97
aF1.0
aF1.0
aaa(lp1042
S'antique white'
p1043
a(lp1044
F0.98
aF0.92
aF0.84
aF1.0
aaa(lp1045
S'aqua'
p1046
a(lp1047
F0.0
aF1.0
aF1.0
aF1.0
aaa(lp1048
S'aquamarine'
p1049
a(lp1050
F0.5
aF1.0
aF0.83
aF1.0
aaa(lp1051
S'azure'
p1052
a(lp1053
F0.94
aF1.0
aF1.0
aF1.0
aaa(lp1054
S'beige'
p1055
a(lp1056
F0.96
aF0.96
aF0.86
aF1.0
aaa(lp1057
S'bisque'
p1058
a(lp1059
F1.0
aF0.89
aF0.77
aF1.0
aaa(lp1060
S'blanched almond'
p1061
a(lp1062
F1.0
aF0.92
aF0.8
aF1.0
aaa(lp1063
S'blue violet'
p1064
a(lp1065
F0.54
aF0.17
aF0.89
aF1.0
aaa(lp1066
S'brown'
p1067
a(lp1068
F0.65
aF0.16
aF0.16
aF1.0
aaa(lp1069
S'burlywood'
p1070
a(lp1071
F0.87
aF0.72
aF0.53
aF1.0
aaa(lp1072
S'cadet blue'
p1073
a(lp1074
F0.37
aF0.62
aF0.63
aF1.0
aaa(lp1075
S'chartreuse'
p1076
a(lp1077
F0.5
aF1.0
aF0.0
aF1.0
aaa(lp1078
S'chocolate'
p1079
a(lp1080
F0.82
aF0.41
aF0.12
aF1.0
aaa(lp1081
S'cornflower blue'
p1082
a(lp1083
F0.39
aF0.58
aF0.93
aF1.0
aaa(lp1084
S'cornsilk'
p1085
a(lp1086
F1.0
aF0.97
aF0.86
aF1.0
aaa(lp1087
S'crimson'
p1088
a(lp1089
F0.86
aF0.08
aF0.24
aF1.0
aaa(lp1090
S'dark blue'
p1091
a(lp1092
F0.0
aF0.0
aF0.55
aF1.0
aaa(lp1093
S'dark goldenrod'
p1094
a(lp1095
F0.72
aF0.53
aF0.04
aF1.0
aaa(lp1096
S'dark gray'
p1097
a(lp1098
F0.66
aF0.66
aF0.66
aF1.0
aaa(lp1099
S'dark green'
p1100
a(lp1101
F0.0
aF0.39
aF0.0
aF1.0
aaa(lp1102
S'dark grey'
p1103
a(lp1104
F0.66
aF0.66
aF0.66
aF1.0
aaa(lp1105
S'dark khaki'
p1106
a(lp1107
F0.74
aF0.72
aF0.42
aF1.0
aaa(lp1108
S'dark magenta'
p1109
a(lp1110
F0.55
aF0.0
aF0.55
aF1.0
aaa(lp1111
S'dark olive green'
p1112
a(lp1113
F0.33
aF0.42
aF0.18
aF1.0
aaa(lp1114
S'dark orange'
p1115
a(lp1116
F1.0
aF0.55
aF0.0
aF1.0
aaa(lp1117
S'dark orchid'
p1118
a(lp1119
F0.6
aF0.2
aF0.8
aF1.0
aaa(lp1120
S'dark red'
p1121
a(lp1122
F0.55
aF0.0
aF0.0
aF1.0
aaa(lp1123
S'dark salmon'
p1124
a(lp1125
F0.91
aF0.59
aF0.48
aF1.0
aaa(lp1126
S'dark sea green'
p1127
a(lp1128
F0.56
aF0.74
aF0.56
aF1.0
aaa(lp1129
S'dark slate blue'
p1130
a(lp1131
F0.28
aF0.24
aF0.55
aF1.0
aaa(lp1132
S'dark slate gray'
p1133
a(lp1134
F0.18
aF0.31
aF0.31
aF1.0
aaa(lp1135
S'dark slate grey'
p1136
a(lp1137
F0.18
aF0.31
aF0.31
aF1.0
aaa(lp1138
S'dark turquoise'
p1139
a(lp1140
F0.0
aF0.81
aF0.82
aF1.0
aaa(lp1141
S'dark violet'
p1142
a(lp1143
F0.58
aF0.0
aF0.83
aF1.0
aaa(lp1144
S'deep pink'
p1145
a(lp1146
F1.0
aF0.08
aF0.58
aF1.0
aaa(lp1147
S'deep sky blue'
p1148
a(lp1149
F0.0
aF0.75
aF1.0
aF1.0
aaa(lp1150
S'dim gray'
p1151
a(lp1152
F0.41
aF0.41
aF0.41
aF1.0
aaa(lp1153
S'dim grey'
p1154
a(lp1155
F0.41
aF0.41
aF0.41
aF1.0
aaa(lp1156
S'dodger blue'
p1157
a(lp1158
F0.12
aF0.56
aF1.0
aF1.0
aaa(lp1159
S'firebrick'
p1160
a(lp1161
F0.7
aF0.13
aF0.13
aF1.0
aaa(lp1162
S'floral white'
p1163
a(lp1164
F1.0
aF0.98
aF0.94
aF1.0
aaa(lp1165
S'forest green'
p1166
a(lp1167
F0.13
aF0.55
aF0.13
aF1.0
aaa(lp1168
S'fuchsia'
p1169
a(lp1170
F1.0
aF0.0
aF1.0
aF1.0
aaa(lp1171
S'gainsboro'
p1172
a(lp1173
F0.86
aF0.86
aF0.86
aF1.0
aaa(lp1174
S'ghost white'
p1175
a(lp1176
F0.97
aF0.97
aF1.0
aF1.0
aaa(lp1177
S'goldenrod'
p1178
a(lp1179
F0.85
aF0.65
aF0.13
aF1.0
aaa(lp1180
S'gray'
p1181
a(lp1182
F0.75
aF0.75
aF0.75
aF1.0
aaa(lp1183
S'green yellow'
p1184
a(lp1185
F0.68
aF1.0
aF0.18
aF1.0
aaa(lp1186
S'honeydew'
p1187
a(lp1188
F0.94
aF1.0
aF0.94
aF1.0
aaa(lp1189
S'hot pink'
p1190
a(lp1191
F1.0
aF0.41
aF0.71
aF1.0
aaa(lp1192
S'indian red'
p1193
a(lp1194
F0.8
aF0.36
aF0.36
aF1.0
aaa(lp1195
S'indigo'
p1196
a(lp1197
F0.29
aF0.0
aF0.51
aF1.0
aaa(lp1198
S'ivory'
p1199
a(lp1200
F1.0
aF1.0
aF0.94
aF1.0
aaa(lp1201
S'khaki'
p1202
a(lp1203
F0.94
aF0.9
aF0.55
aF1.0
aaa(lp1204
S'lavender blush'
p1205
a(lp1206
F1.0
aF0.94
aF0.96
aF1.0
aaa(lp1207
S'lavender'
p1208
a(lp1209
F0.9
aF0.9
aF0.98
aF1.0
aaa(lp1210
S'lemon chiffon'
p1211
a(lp1212
F1.0
aF0.98
aF0.8
aF1.0
aaa(lp1213
S'light coral'
p1214
a(lp1215
F0.94
aF0.5
aF0.5
aF1.0
aaa(lp1216
S'light cyan'
p1217
a(lp1218
F0.88
aF1.0
aF1.0
aF1.0
aaa(lp1219
S'light goldenrod yellow'
p1220
a(lp1221
F0.98
aF0.98
aF0.82
aF1.0
aaa(lp1222
S'light goldenrod'
p1223
a(lp1224
F0.93
aF0.87
aF0.51
aF1.0
aaa(lp1225
S'light gray'
p1226
a(lp1227
F0.83
aF0.83
aF0.83
aF1.0
aaa(lp1228
S'light grey'
p1229
a(lp1230
F0.83
aF0.83
aF0.83
aF1.0
aaa(lp1231
S'light pink'
p1232
a(lp1233
F1.0
aF0.71
aF0.76
aF1.0
aaa(lp1234
S'light salmon'
p1235
a(lp1236
F1.0
aF0.63
aF0.48
aF1.0
aaa(lp1237
S'light sea green'
p1238
a(lp1239
F0.13
aF0.7
aF0.67
aF1.0
aaa(lp1240
S'light sky blue'
p1241
a(lp1242
F0.53
aF0.81
aF0.98
aF1.0
aaa(lp1243
S'light slate blue'
p1244
a(lp1245
F0.52
aF0.44
aF1.0
aF1.0
aaa(lp1246
S'light slate gray'
p1247
a(lp1248
F0.47
aF0.53
aF0.6
aF1.0
aaa(lp1249
S'light slate grey'
p1250
a(lp1251
F0.47
aF0.53
aF0.6
aF1.0
aaa(lp1252
S'light steel blue'
p1253
a(lp1254
F0.69
aF0.77
aF0.87
aF1.0
aaa(lp1255
S'light yellow'
p1256
a(lp1257
F1.0
aF1.0
aF0.88
aF1.0
aaa(lp1258
S'lime green'
p1259
a(lp1260
F0.2
aF0.8
aF0.2
aF1.0
aaa(lp1261
S'lime'
p1262
a(lp1263
F0.0
aF1.0
aF0.0
aF1.0
aaa(lp1264
S'linen'
p1265
a(lp1266
F0.98
aF0.94
aF0.9
aF1.0
aaa(lp1267
S'maroon'
p1268
a(lp1269
F0.69
aF0.19
aF0.38
aF1.0
aaa(lp1270
S'medium aquamarine'
p1271
a(lp1272
F0.4
aF0.8
aF0.67
aF1.0
aaa(lp1273
S'medium blue'
p1274
a(lp1275
F0.0
aF0.0
aF0.8
aF1.0
aaa(lp1276
S'medium orchid'
p1277
a(lp1278
F0.73
aF0.33
aF0.83
aF1.0
aaa(lp1279
S'medium purple'
p1280
a(lp1281
F0.58
aF0.44
aF0.86
aF1.0
aaa(lp1282
S'medium sea green'
p1283
a(lp1284
F0.24
aF0.7
aF0.44
aF1.0
aaa(lp1285
S'medium slate blue'
p1286
a(lp1287
F0.48
aF0.41
aF0.93
aF1.0
aaa(lp1288
S'medium spring green'
p1289
a(lp1290
F0.0
aF0.98
aF0.6
aF1.0
aaa(lp1291
S'medium turquoise'
p1292
a(lp1293
F0.28
aF0.82
aF0.8
aF1.0
aaa(lp1294
S'medium violet red'
p1295
a(lp1296
F0.78
aF0.08
aF0.52
aF1.0
aaa(lp1297
S'midnight blue'
p1298
a(lp1299
F0.1
aF0.1
aF0.44
aF1.0
aaa(lp1300
S'mint cream'
p1301
a(lp1302
F0.96
aF1.0
aF0.98
aF1.0
aaa(lp1303
S'misty rose'
p1304
a(lp1305
F1.0
aF0.89
aF0.88
aF1.0
aaa(lp1306
S'moccasin'
p1307
a(lp1308
F1.0
aF0.89
aF0.71
aF1.0
aaa(lp1309
S'navajo white'
p1310
a(lp1311
F1.0
aF0.87
aF0.68
aF1.0
aaa(lp1312
S'navy blue'
p1313
a(lp1314
F0.0
aF0.0
aF0.5
aF1.0
aaa(lp1315
S'navy'
p1316
a(lp1317
F0.0
aF0.0
aF0.5
aF1.0
aaa(lp1318
S'old lace'
p1319
a(lp1320
F0.99
aF0.96
aF0.9
aF1.0
aaa(lp1321
S'olive drab'
p1322
a(lp1323
F0.42
aF0.56
aF0.14
aF1.0
aaa(lp1324
S'olive'
p1325
a(lp1326
F0.5
aF0.5
aF0.0
aF1.0
aaa(lp1327
S'orange red'
p1328
a(lp1329
F1.0
aF0.27
aF0.0
aF1.0
aaa(lp1330
S'orange'
p1331
a(lp1332
F1.0
aF0.65
aF0.0
aF1.0
aaa(lp1333
S'orchid'
p1334
a(lp1335
F0.85
aF0.44
aF0.84
aF1.0
aaa(lp1336
S'pale goldenrod'
p1337
a(lp1338
F0.93
aF0.91
aF0.67
aF1.0
aaa(lp1339
S'pale green'
p1340
a(lp1341
F0.6
aF0.98
aF0.6
aF1.0
aaa(lp1342
S'pale turquoise'
p1343
a(lp1344
F0.69
aF0.93
aF0.93
aF1.0
aaa(lp1345
S'pale violet red'
p1346
a(lp1347
F0.86
aF0.44
aF0.58
aF1.0
aaa(lp1348
S'papaya whip'
p1349
a(lp1350
F1.0
aF0.94
aF0.84
aF1.0
aaa(lp1351
S'peach puff'
p1352
a(lp1353
F1.0
aF0.85
aF0.73
aF1.0
aaa(lp1354
S'peru'
p1355
a(lp1356
F0.8
aF0.52
aF0.25
aF1.0
aaa(lp1357
S'plum'
p1358
a(lp1359
F0.87
aF0.63
aF0.87
aF1.0
aaa(lp1360
S'powder blue'
p1361
a(lp1362
F0.69
aF0.88
aF0.9
aF1.0
aaa(lp1363
S'rebecca purple'
p1364
a(lp1365
F0.4
aF0.2
aF0.6
aF1.0
aaa(lp1366
S'rosy brown'
p1367
a(lp1368
F0.74
aF0.56
aF0.56
aF1.0
aaa(lp1369
S'royal blue'
p1370
a(lp1371
F0.25
aF0.41
aF0.88
aF1.0
aaa(lp1372
S'saddle brown'
p1373
a(lp1374
F0.55
aF0.27
aF0.07
aF1.0
aaa(lp1375
S'salmon'
p1376
a(lp1377
F0.98
aF0.5
aF0.45
aF1.0
aaa(lp1378
S'sandy brown'
p1379
a(lp1380
F0.96
aF0.64
aF0.38
aF1.0
aaa(lp1381
S'seashell'
p1382
a(lp1383
F1.0
aF0.96
aF0.93
aF1.0
aaa(lp1384
S'sienna'
p1385
a(lp1386
F0.63
aF0.32
aF0.18
aF1.0
aaa(lp1387
S'silver'
p1388
a(lp1389
F0.75
aF0.75
aF0.75
aF1.0
aaa(lp1390
S'sky blue'
p1391
a(lp1392
F0.53
aF0.81
aF0.92
aF1.0
aaa(lp1393
S'slate blue'
p1394
a(lp1395
F0.42
aF0.35
aF0.8
aF1.0
aaa(lp1396
S'slate gray'
p1397
a(lp1398
F0.44
aF0.5
aF0.56
aF1.0
aaa(lp1399
S'slate grey'
p1400
a(lp1401
F0.44
aF0.5
aF0.56
aF1.0
aaa(lp1402
S'snow'
p1403
a(lp1404
F1.0
aF0.98
aF0.98
aF1.0
aaa(lp1405
S'spring green'
p1406
a(lp1407
F0.0
aF1.0
aF0.5
aF1.0
aaa(lp1408
S'steel blue'
p1409
a(lp1410
F0.27
aF0.51
aF0.71
aF1.0
aaa(lp1411
S'teal'
p1412
a(lp1413
F0.0
aF0.5
aF0.5
aF1.0
aaa(lp1414
S'thistle'
p1415
a(lp1416
F0.85
aF0.75
aF0.85
aF1.0
aaa(lp1417
S'tomato'
p1418
a(lp1419
F1.0
aF0.39
aF0.28
aF1.0
aaa(lp1420
S'turquoise'
p1421
a(lp1422
F0.25
aF0.88
aF0.82
aF1.0
aaa(lp1423
S'violet red'
p1424
a(lp1425
F0.82
aF0.13
aF0.56
aF1.0
aaa(lp1426
S'violet'
p1427
a(lp1428
F0.93
aF0.51
aF0.93
aF1.0
aaa(lp1429
S'web gray'
p1430
a(lp1431
F0.5
aF0.5
aF0.5
aF1.0
aaa(lp1432
S'web green'
p1433
a(lp1434
F0.0
aF0.5
aF0.0
aF1.0
aaa(lp1435
S'web grey'
p1436
a(lp1437
F0.5
aF0.5
aF0.5
aF1.0
aaa(lp1438
S'web maroon'
p1439
a(lp1440
F0.5
aF0.0
aF0.0
aF1.0
aaa(lp1441
S'web purple'
p1442
a(lp1443
F0.5
aF0.0
aF0.5
aF1.0
aaa(lp1444
S'wheat'
p1445
a(lp1446
F0.96
aF0.87
aF0.7
aF1.0
aaa(lp1447
S'white smoke'
p1448
a(lp1449
F0.96
aF0.96
aF0.96
aF1.0
aaa(lp1450
S'x11 gray'
p1451
a(lp1452
F0.75
aF0.75
aF0.75
aF1.0
aaa(lp1453
S'x11 green'
p1454
a(lp1455
F0.0
aF1.0
aF0.0
aF1.0
aaa(lp1456
S'x11 grey'
p1457
a(lp1458
F0.75
aF0.75
aF0.75
aF1.0
aaa(lp1459
S'x11 maroon'
p1460
a(lp1461
F0.69
aF0.19
aF0.38
aF1.0
aaa(lp1462
S'x11 purple'
p1463
a(lp1464
F0.63
aF0.13
aF0.94
aF1.0
aaa(lp1465
S'yellow green'
p1466
a(lp1467
F0.6
aF0.8
aF0.2
aF1.0
aaaaI169
asS'ampFinal08_model1_3'
p1468
(idataobj
DataObjShadow
p1469
(dp1470
g24
g1468
sg25
g26
sg27
(lp1471
S'ampFinal08_model1_3MolDisp1'
p1472
aS'ampFinal08_model1_3MolDisp2'
p1473
aS'ampFinal08_model1_3SurfaceDispobj3'
p1474
asg32
(lp1475
g34
aS'C:/Users/eliez/OneDrive/Tesis y titulacion/Antimicrobial_Peptides_QSAR_Prediction_Project/PrediccionNovelPeptides/Modelamiento/08.AKVRLLITRLKKKFLIGRRDK\\ampFinal08-model1.3.pdb'
p1476
ag1476
asg36
(dp1477
g38
I1
sg39
S'78A897D3AC644FD2A5053B8F5E34DE3B'
p1478
sg41
g984
sg43
I1
sg25
g26
sg44
I1
sg45
g46
sg32
g1475
sg47
I1
sg48
g49
sg50
g51
sg52
(dp1479
g54
(lp1480
sg56
(lp1481
sg58
g59
sg60
(lp1482
sg62
I1
ssg63
S'Ligand_binding_site:Site_and_ribbons_by_PDB_file'
p1483
ssg47
I1
sg65
(lp1484
(idataobj
DispObjShadow
p1485
(dp1486
g69
(dp1487
g71
g72
sg73
I0
sg74
(dp1488
g76
g77
sg81
g82
sg84
g85
sg87
g88
sg89
g90
sg91
g92
ssg93
g72
sg94
(lp1489
g96
asg97
g98
sg99
S'<span style="color:;">User colour rules </span>\n</p><p><span style="color:red;">/*/*/(ALA,VAL,PRO,LEU,ILE </span>\n</p><p>'
p1490
sg101
g72
sg102
g103
sg104
(lp1491
(lp1492
S'blue'
p1493
ag72
aa(lp1494
S'red'
p1495
a(lp1496
NaS'/*/*/(ALA,VAL,PRO,LEU,ILE,MET,PHE,TRP)/*:*'
p1497
aaasg112
g113
ssg24
g1472
sg25
g114
sg47
I1
sg115
(dp1498
g117
g72
sg118
g72
sg119
g72
sg120
I0
sg121
g72
sg122
g72
sg123
g124
sg125
g126
sg127
g128
sg129
(lp1499
sg131
F4.0
sg132
I1
sg133
(lp1500
sg135
g72
sg136
(lp1501
sg138
g92
sg139
I0
sg140
g72
sg141
(lp1502
sg143
I0
sg144
(lp1503
sg146
I0
sg147
(lp1504
sg149
(lp1505
sg151
(lp1506
sg153
(lp1507
sg155
g72
sg156
(lp1508
sg158
I0
sg159
g160
sg161
(lp1509
sg163
g72
sg164
(lp1510
sg166
(lp1511
sg168
I0
sg169
g72
sg170
g72
sg171
(lp1512
sg173
g72
sg174
I00
sg175
I0
sg176
g72
sg128
g83
sg177
I1
sg178
(lp1513
sg180
I0
sg181
g72
sg182
g83
sg183
g72
sg184
g90
sg185
g72
sg186
(lp1514
sg188
g72
sg189
(lp1515
ssg191
(dp1516
g193
F1.0
sg39
S'928712C2928B4D73B66B38C16BB51710'
p1517
sg195
I01
sg196
I0
sg197
I-1
sg47
I1
sg198
I01
sg199
g72
sg200
g201
sg202
I00
sg203
g72
sg204
(dp1518
g206
g207
sg208
I1
sg209
g210
sg211
I0
sg212
g213
sg214
g215
sg216
I6
sssg217
(dp1519
g219
g220
sg221
I1
ssba(idataobj
DispObjShadow
p1520
(dp1521
g69
(dp1522
g71
g72
sg73
I0
sg74
(dp1523
g76
g77
sg81
g82
sg84
g85
sg87
g88
sg89
g90
sg91
g92
ssg93
g72
sg94
g226
sg97
g98
sg99
g72
sg101
g72
sg102
g181
sg104
g229
sg112
g113
ssg24
g1473
sg25
g114
sg47
I0
sg115
(dp1524
g117
g72
sg118
g72
sg119
g72
sg120
I0
sg121
g72
sg122
g72
sg123
g124
sg125
g126
sg127
g128
sg129
(lp1525
sg131
F4.0
sg132
I1
sg133
(lp1526
sg135
g72
sg136
(lp1527
sg138
g92
sg139
I0
sg140
g72
sg141
(lp1528
sg143
I0
sg144
(lp1529
sg146
I0
sg147
(lp1530
sg149
(lp1531
sg151
(lp1532
sg153
(lp1533
sg155
g72
sg156
(lp1534
sg158
I0
sg159
g160
sg161
(lp1535
sg163
g72
sg164
(lp1536
sg166
(lp1537
sg168
I0
sg169
g72
sg170
g72
sg171
(lp1538
sg173
g72
sg174
I00
sg175
I0
sg176
g72
sg128
g92
sg177
I1
sg178
(lp1539
sg180
I0
sg181
g72
sg182
g92
sg183
g72
sg184
g90
sg185
g72
sg186
(lp1540
sg188
g72
sg189
(lp1541
ssg191
(dp1542
g193
F1.0
sg39
S'5BCD31CEB5484C659B1651BA0816EF0B'
p1543
sg195
I01
sg196
I0
sg197
I-1
sg47
I0
sg198
I01
sg199
g72
sg200
g250
sg202
I00
sg203
g72
sg204
(dp1544
g206
g207
sg208
I1
sg209
g210
sg211
I0
sg212
g213
sg214
g215
sg216
I6
sssg217
(dp1545
g219
g253
sg221
I1
ssba(idataobj
DispObjShadow
p1546
(dp1547
g69
(dp1548
g71
g72
sg73
I0
sg74
(dp1549
g76
g77
sg81
g82
sg84
g85
sg87
g88
sg89
g90
sg91
g92
ssg93
g72
sg94
g226
sg97
g98
sg99
g72
sg101
g72
sg102
g258
sg104
g229
sg112
g113
ssg24
g1474
sg25
g259
sg47
I0
sg115
(dp1550
g117
g72
sg118
g72
sg119
g72
sg120
I0
sg121
g72
sg122
g72
sg123
g124
sg125
g126
sg127
g83
sg129
(lp1551
sg131
F4.0
sg132
I1
sg133
(lp1552
sg135
g72
sg136
(lp1553
sg138
g92
sg139
I0
sg140
g72
sg141
(lp1554
sg143
I0
sg144
(lp1555
sg146
I0
sg147
(lp1556
sg149
(lp1557
sg151
(lp1558
sg153
(lp1559
sg155
g72
sg156
(lp1560
sg158
I0
sg159
g160
sg161
(lp1561
sg163
g72
sg164
(lp1562
sg166
(lp1563
sg168
I0
sg169
g72
sg170
g72
sg171
(lp1564
sg173
g72
sg174
I00
sg175
I0
sg176
g72
sg128
g72
sg177
I1
sg178
(lp1565
sg180
I0
sg181
g72
sg182
g83
sg183
g72
sg184
g90
sg185
g72
sg186
(lp1566
sg188
g72
sg189
(lp1567
ssg191
(dp1568
g193
F1.0
sg279
g280
sg39
S'4D98AA2485DB4EA086AC07608297C610'
p1569
sg196
I0
sg47
I0
sg282
g283
sg199
g72
sg200
g284
ssg217
(dp1570
g117
g72
sg118
g72
sg119
g72
sg120
I0
sg121
g72
sg122
g72
sg123
g124
sg125
g126
sg127
g83
sg129
(lp1571
sg131
F4.0
sg132
I1
sg133
(lp1572
sg135
g72
sg136
(lp1573
sg138
g92
sg139
I0
sg140
g72
sg141
(lp1574
sg143
g1474
sg144
(lp1575
sg146
I0
sg147
(lp1576
sg149
(lp1577
sg151
(lp1578
sg153
(lp1579
sg155
g72
sg156
(lp1580
sg158
I0
sg159
g160
sg161
(lp1581
sg163
g72
sg164
(lp1582
sg166
(lp1583
sg168
I0
sg169
g72
sg170
g72
sg171
(lp1584
sg173
g72
sg174
I00
sg175
I0
sg176
g72
sg128
g72
sg177
I1
sg178
(lp1585
sg180
I0
sg181
g72
sg182
g83
sg183
g72
sg184
g90
sg185
g72
sg186
(lp1586
sg188
g72
sg189
(lp1587
ssbasbsS'version'
p1588
g51
sS'ampFinal05_model153'
p1589
(idataobj
DataObjShadow
p1590
(dp1591
g24
g1589
sg25
g26
sg27
(lp1592
S'ampFinal05_model153MolDisp1'
p1593
aS'ampFinal05_model153MolDisp2'
p1594
aS'ampFinal05_model153SurfaceDispobj3'
p1595
asg32
(lp1596
g34
aS'C:/Users/eliez/OneDrive/Tesis y titulacion/Antimicrobial_Peptides_QSAR_Prediction_Project/PrediccionNovelPeptides/Modelamiento/05.RLLNKPRKIKFVIIPRKPFKRKSFAIWTKLKLG\\ampFinal05-model153.pdb'
p1597
ag1597
asg36
(dp1598
g38
I1
sg39
S'EC6CA33CBF72454FAE167C5CDDE5F7A5'
p1599
sg41
g977
sg43
I1
sg25
g26
sg44
I1
sg45
g46
sg32
g1596
sg47
I1
sg48
g49
sg50
g51
sg52
(dp1600
g54
(lp1601
sg56
(lp1602
sg58
g59
sg60
(lp1603
sg62
I1
ssg63
S'Ligand_binding_site:Site_and_ribbons_by_PDB_file'
p1604
ssg47
I1
sg65
(lp1605
(idataobj
DispObjShadow
p1606
(dp1607
g69
(dp1608
g71
g72
sg73
I0
sg74
(dp1609
g76
g77
sg81
g82
sg84
g85
sg87
g88
sg89
g90
sg91
g92
ssg93
g72
sg94
g226
sg97
g98
sg99
S'<span style="color:;">User colour rules </span>\n</p><p><span style="color:red;">/*/*/(ALA,VAL,PRO,LEU,ILE </span>\n</p><p>'
p1610
sg101
g72
sg102
g103
sg104
(lp1611
(lp1612
S'blue'
p1613
ag72
aa(lp1614
S'red'
p1615
a(lp1616
NaS'/*/*/(ALA,VAL,PRO,LEU,ILE,MET,PHE,TRP)/*:*'
p1617
aaasg112
g113
ssg24
g1593
sg25
g114
sg47
I0
sg115
(dp1618
g117
g72
sg118
g72
sg119
g72
sg120
I0
sg121
g72
sg122
g72
sg123
g124
sg125
g126
sg127
g128
sg129
(lp1619
sg131
F4.0
sg132
I1
sg133
(lp1620
sg135
g72
sg136
(lp1621
sg138
g92
sg139
I0
sg140
g72
sg141
(lp1622
sg143
I0
sg144
(lp1623
sg146
I0
sg147
(lp1624
sg149
(lp1625
sg151
(lp1626
sg153
(lp1627
sg155
g72
sg156
(lp1628
sg158
I0
sg159
g160
sg161
(lp1629
sg163
g72
sg164
(lp1630
sg166
(lp1631
sg168
I0
sg169
g72
sg170
g72
sg171
(lp1632
sg173
g72
sg174
I00
sg175
I0
sg176
g72
sg128
g83
sg177
I1
sg178
(lp1633
sg180
I0
sg181
g72
sg182
g83
sg183
g72
sg184
g90
sg185
g72
sg186
(lp1634
sg188
g72
sg189
(lp1635
ssg191
(dp1636
g193
F1.0
sg39
S'51E577EF681D44919F69AC2AB60BBEB4'
p1637
sg195
I01
sg196
I0
sg197
I-1
sg47
I0
sg198
I01
sg199
g72
sg200
g201
sg202
I00
sg203
g72
sg204
(dp1638
g206
g207
sg208
I1
sg209
g210
sg211
I0
sg212
g213
sg214
g215
sg216
I6
sssg217
(dp1639
g219
g220
sg221
I1
ssba(idataobj
DispObjShadow
p1640
(dp1641
g69
(dp1642
g71
g72
sg73
I0
sg74
(dp1643
g76
g77
sg81
g82
sg84
g85
sg87
g88
sg89
g90
sg91
g92
ssg93
g72
sg94
g226
sg97
g98
sg99
g72
sg101
g72
sg102
g181
sg104
g229
sg112
g113
ssg24
g1594
sg25
g114
sg47
I0
sg115
(dp1644
g117
g72
sg118
g72
sg119
g72
sg120
I0
sg121
g72
sg122
g72
sg123
g124
sg125
g126
sg127
g128
sg129
(lp1645
sg131
F4.0
sg132
I1
sg133
(lp1646
sg135
g72
sg136
(lp1647
sg138
g92
sg139
I0
sg140
g72
sg141
(lp1648
sg143
I0
sg144
(lp1649
sg146
I0
sg147
(lp1650
sg149
(lp1651
sg151
(lp1652
sg153
(lp1653
sg155
g72
sg156
(lp1654
sg158
I0
sg159
g160
sg161
(lp1655
sg163
g72
sg164
(lp1656
sg166
(lp1657
sg168
I0
sg169
g72
sg170
g72
sg171
(lp1658
sg173
g72
sg174
I00
sg175
I0
sg176
g72
sg128
g92
sg177
I1
sg178
(lp1659
sg180
I0
sg181
g72
sg182
g92
sg183
g72
sg184
g90
sg185
g72
sg186
(lp1660
sg188
g72
sg189
(lp1661
ssg191
(dp1662
g193
F1.0
sg39
S'F432AC8199F04F95BFD0BF09504FA779'
p1663
sg195
I01
sg196
I0
sg197
I-1
sg47
I0
sg198
I01
sg199
g72
sg200
g250
sg202
I00
sg203
g72
sg204
(dp1664
g206
g207
sg208
I1
sg209
g210
sg211
I0
sg212
g213
sg214
g215
sg216
I6
sssg217
(dp1665
g219
g253
sg221
I1
ssba(idataobj
DispObjShadow
p1666
(dp1667
g69
(dp1668
g71
g72
sg73
I0
sg74
(dp1669
g76
g77
sg81
g82
sg84
g85
sg87
g88
sg89
g90
sg91
g92
ssg93
g72
sg94
g226
sg97
g98
sg99
g72
sg101
g72
sg102
g258
sg104
g229
sg112
g113
ssg24
g1595
sg25
g259
sg47
I0
sg115
(dp1670
g117
g72
sg118
g72
sg119
g72
sg120
I0
sg121
g72
sg122
g72
sg123
g124
sg125
g126
sg127
g83
sg129
(lp1671
sg131
F4.0
sg132
I1
sg133
(lp1672
sg135
g72
sg136
(lp1673
sg138
g92
sg139
I0
sg140
g72
sg141
(lp1674
sg143
I0
sg144
(lp1675
sg146
I0
sg147
(lp1676
sg149
(lp1677
sg151
(lp1678
sg153
(lp1679
sg155
g72
sg156
(lp1680
sg158
I0
sg159
g160
sg161
(lp1681
sg163
g72
sg164
(lp1682
sg166
(lp1683
sg168
I0
sg169
g72
sg170
g72
sg171
(lp1684
sg173
g72
sg174
I00
sg175
I0
sg176
g72
sg128
g72
sg177
I1
sg178
(lp1685
sg180
I0
sg181
g72
sg182
g83
sg183
g72
sg184
g90
sg185
g72
sg186
(lp1686
sg188
g72
sg189
(lp1687
ssg191
(dp1688
g193
F1.0
sg279
g280
sg39
S'31E1A4DD41954C6AB3C118A7DF5920AC'
p1689
sg196
I0
sg47
I0
sg282
g283
sg199
g72
sg200
g284
ssg217
(dp1690
g117
g72
sg118
g72
sg119
g72
sg120
I0
sg121
g72
sg122
g72
sg123
g124
sg125
g126
sg127
g83
sg129
(lp1691
sg131
F4.0
sg132
I1
sg133
(lp1692
sg135
g72
sg136
(lp1693
sg138
g92
sg139
I0
sg140
g72
sg141
(lp1694
sg143
g1595
sg144
(lp1695
sg146
I0
sg147
(lp1696
sg149
(lp1697
sg151
(lp1698
sg153
(lp1699
sg155
g72
sg156
(lp1700
sg158
I0
sg159
g160
sg161
(lp1701
sg163
g72
sg164
(lp1702
sg166
(lp1703
sg168
I0
sg169
g72
sg170
g72
sg171
(lp1704
sg173
g72
sg174
I00
sg175
I0
sg176
g72
sg128
g72
sg177
I1
sg178
(lp1705
sg180
I0
sg181
g72
sg182
g83
sg183
g72
sg184
g90
sg185
g72
sg186
(lp1706
sg188
g72
sg189
(lp1707
ssbasbsS'mouse_bindings'
p1708
(dp1709
S'translate-z'
p1710
(dp1711
S'shift'
p1712
I0
sS'alt'
p1713
I0
sS'mouse_button'
p1714
S'middle'
p1715
sS'key'
p1716
S'z'
p1717
sS'ctrl'
p1718
I0
ssS'object-rotate-xy'
p1719
(dp1720
g1712
I0
sg1713
I0
sg1714
S'left'
p1721
sg1716
S'x'
p1722
sg1718
I0
ssS'rotate-xy'
p1723
(dp1724
g1712
I0
sg1713
I0
sg1714
g1721
sg1716
S' '
p1725
sg1718
I0
ssS'object-translate-z'
p1726
(dp1727
g1712
I1
sg1713
I0
sg1714
g1715
sg1716
g1722
sg1718
I0
ssS'zoom'
p1728
(dp1729
g1712
I0
sg1713
I0
sg1714
g1715
sg1716
g1725
sg1718
I0
ssS'translate-xy'
p1730
(dp1731
g1712
I1
sg1713
I0
sg1714
g1715
sg1716
g1725
sg1718
I0
ssS'clip-width'
p1732
(dp1733
g1712
I0
sg1713
I0
sg1714
g1715
sg1716
S'c'
p1734
sg1718
I0
ssS'rotate-z'
p1735
(dp1736
g1712
I1
sg1713
I0
sg1714
g1721
sg1716
g1725
sg1718
I0
ssS'object-rotate-z'
p1737
(dp1738
g1712
I1
sg1713
I0
sg1714
g1721
sg1716
g1722
sg1718
I0
ssS'object-translate-xy'
p1739
(dp1740
g1712
I0
sg1713
I0
sg1714
g1715
sg1716
g1722
sg1718
I0
sssS'picture_wizard'
p1741
(dp1742
S'recentre_after_wizard'
p1743
I1
sS'keep_display_objects'
p1744
I0
sS'recentre'
p1745
I0
sS'hide_unselected_dataobj'
p1746
I0
sS'show_wizard_choices'
p1747
I0
sS'default_drawing_style'
p1748
S'Ligand_binding_site:Site_and_ribbons_by_PDB_file'
p1749
ssS'Legends&Images'
p1750
(idataobj
DataObjShadow
p1751
(dp1752
g24
g1750
sg25
S'GL2dScreen'
p1753
sg27
(lp1754
S'Legend'
p1755
asg32
g72
sg36
(dp1756
g38
I1
sg39
S'8DEB8A53D8A44A6AB4EE71310803B5D5'
p1757
sg25
g1753
sg45
g1755
sg32
(lp1758
g72
ag72
ag72
asg47
I1
sg50
S'2.10.11'
p1759
ssg47
I1
sg65
(lp1760
(idataobj
DispObjShadow
p1761
(dp1762
g47
I1
sg25
g1755
sg191
(dp1763
g193
F1.0
sS'selection'
p1764
S'<!DOCTYPE HTML PUBLIC "-//W3C//DTD HTML 4.0//EN" "http://www.w3.org/TR/REC-html40/strict.dtd">\n<html><head><meta name="qrichtext" content="1" /><style type="text/css">\np, li { white-space: pre-wrap; }\n</style></head><body style=" font-family:\'MS Shell Dlg 2\'; font-size:8pt; font-weight:400; font-style:normal;">\n<p style=" margin-top:0px; margin-bottom:0px; margin-left:0px; margin-right:0px; -qt-block-indent:0; text-indent:0px;"><span style=" font-size:14pt; font-weight:600;">\t  NPEP251829:</span></p>\n<p style=" margin-top:0px; margin-bottom:0px; margin-left:0px; margin-right:0px; -qt-block-indent:0; text-indent:0px;"><span style=" font-size:14pt; font-weight:600;">AKVRLLITRLKKKFLIGRRDK</span></p>\n<p style="-qt-paragraph-type:empty; margin-top:0px; margin-bottom:0px; margin-left:0px; margin-right:0px; -qt-block-indent:0; text-indent:0px; font-size:14pt; font-weight:600;"><br /></p>\n<p style="-qt-paragraph-type:empty; margin-top:0px; margin-bottom:0px; margin-left:0px; margin-right:0px; -qt-block-indent:0; text-indent:0px; font-size:14pt; font-weight:600;"><br /></p>\n<p style="-qt-paragraph-type:empty; margin-top:0px; margin-bottom:0px; margin-left:0px; margin-right:0px; -qt-block-indent:0; text-indent:0px;"><br /></p></body></html>'
p1765
sg39
S'E5811CC3791849078E2068568B272D9A'
p1766
sg196
I0
sg47
I1
sg199
g72
sS'position'
p1767
(lp1768
F0.3
aF0.01
asg200
g72
ssg24
g1755
sbasbsS'applications'
p1769
(dp1770
S'picture_wizard'
p1771
(dp1772
g1743
I1
sg1744
I0
sg1745
I0
sg1746
I0
sg1747
I0
sg1748
g1749
ssS'Superpose'
p1773
(dp1774
S'fixed_mask_colour'
p1775
S'blue'
p1776
sS'monomer_keep_matches'
p1777
I0
sS'apply_interactive_all'
p1778
I0
sS'close_atoms_res_cutoff'
p1779
F2.0
sS'show_mask'
p1780
I0
sS'close_atoms_cutoff'
p1781
F0.5
sS'close_atoms_initial_global'
p1782
I0
sS'show_equiv_mol'
p1783
S'model2'
p1784
sS'show_equivalents'
p1785
I0
sS'close_atoms_central_atom'
p1786
S' CA '
p1787
sS'show_distances'
p1788
I1
sS'moving_mask_colour'
p1789
S'dark purple'
p1790
sS'superposeModels'
p1791
(dp1792
S'model3'
p1793
(dp1794
S'matches'
p1795
(lp1796
sS'on'
p1797
I1
sS'MolData_name'
p1798
g1793
sS'selection'
p1799
S'all'
p1800
sS'fixed_MolData_name'
p1801
S'model1'
p1802
ssg1784
(dp1803
g1795
(lp1804
(dp1805
g1797
I1
sS'qualifier'
p1806
g72
sS'sele2'
p1807
g72
sS'sele1'
p1808
g72
sS'mode'
p1809
S'range'
p1810
sS'close'
p1811
I0
sasg1797
I1
sg1798
g1784
sg1799
S'all'
p1812
sg1801
g1802
ssg1802
(dp1813
g1795
(lp1814
sg1797
I1
sg1798
g1802
sg1799
S'all'
p1815
sg1801
g1802
ssS'model5'
p1816
(dp1817
g1795
(lp1818
sg1797
I1
sg1798
g1816
sg1799
S'all'
p1819
sg1801
g1802
ssS'model4'
p1820
(dp1821
g1795
(lp1822
sg1797
I1
sg1798
g1820
sg1799
S'all'
p1823
sg1801
g1802
sssS'selected_atoms_mode'
p1824
S'catrace'
p1825
sS'conn_colour'
p1826
S'black'
p1827
sS'fixed'
p1828
g1802
sS'method'
p1829
S'close'
p1830
sS'selected_atoms_selection'
p1831
(lp1832
S'CA'
p1833
aS'CB'
p1834
asssS'Data_list'
p1835
(lp1836
S'ampFinal03_model24'
p1837
aS'ampFinal04_model43'
p1838
ag1589
ag21
ag347
ag1468
ag1750
asg1837
(idataobj
DataObjShadow
p1839
(dp1840
g24
g1837
sg25
g26
sg27
(lp1841
S'ampFinal03_model24MolDisp1'
p1842
aS'ampFinal03_model24MolDisp2'
p1843
aS'ampFinal03_model24SurfaceDispobj3'
p1844
asg32
(lp1845
g34
aS'C:/Users/eliez/OneDrive/Tesis y titulacion/Antimicrobial_Peptides_QSAR_Prediction_Project/PrediccionNovelPeptides/Modelamiento/03.GIRIPKATSRKRYLKKIFEKKQAFVLFRFIP\\ampFinal03-model24.pdb'
p1846
ag1846
asg36
(dp1847
g38
I1
sg39
S'CF24854287C449599A63681610477300'
p1848
sg41
g971
sg43
I1
sg25
g26
sg44
I1
sg45
g46
sg32
g1845
sg47
I1
sg48
g49
sg50
g51
sg52
(dp1849
g54
(lp1850
sg56
(lp1851
sg58
g59
sg60
(lp1852
sg62
I1
ssg63
S'Ligand_binding_site:Site_and_ribbons_by_PDB_file'
p1853
ssg47
I1
sg65
(lp1854
(idataobj
DispObjShadow
p1855
(dp1856
g69
(dp1857
g71
g72
sg73
I0
sg74
(dp1858
g76
g77
sg81
g82
sg84
g85
sg87
g88
sg89
g90
sg91
g92
ssg93
g72
sg94
(lp1859
g96
asg97
g98
sg99
S'<span style="color:;">User colour rules </span>\n</p><p><span style="color:red;">/*/*/(ALA,VAL,PRO,LEU,ILE </span>\n</p><p>'
p1860
sg101
g72
sg102
g103
sg104
(lp1861
(lp1862
S'blue'
p1863
ag72
aa(lp1864
S'red'
p1865
a(lp1866
NaS'/*/*/(ALA,VAL,PRO,LEU,ILE,MET,PHE,TRP)/*:*'
p1867
aaasg112
g113
ssg24
g1842
sg25
g114
sg47
I0
sg115
(dp1868
g117
g72
sg118
g72
sg119
g72
sg120
I0
sg121
g72
sg122
g72
sg123
g124
sg125
g126
sg127
g128
sg129
(lp1869
sg131
F4.0
sg132
I1
sg133
(lp1870
sg135
g72
sg136
(lp1871
sg138
g92
sg139
I0
sg140
g72
sg141
(lp1872
sg143
I0
sg144
(lp1873
sg146
I0
sg147
(lp1874
sg149
(lp1875
sg151
(lp1876
sg153
(lp1877
sg155
g72
sg156
(lp1878
sg158
I0
sg159
g160
sg161
(lp1879
sg163
g72
sg164
(lp1880
sg166
(lp1881
sg168
I0
sg169
g72
sg170
g72
sg171
(lp1882
sg173
g72
sg174
I00
sg175
I0
sg176
g72
sg128
g83
sg177
I1
sg178
(lp1883
sg180
I0
sg181
g72
sg182
g83
sg183
g72
sg184
g90
sg185
g72
sg186
(lp1884
sg188
g72
sg189
(lp1885
ssg191
(dp1886
g193
F1.0
sg39
S'85DD076FDB964E669E47F14FCA73AEA4'
p1887
sg195
I01
sg196
I0
sg197
I-1
sg47
I0
sg198
I01
sg199
g72
sg200
g201
sg202
I00
sg203
g72
sg204
(dp1888
g206
g207
sg208
I1
sg209
g210
sg211
I0
sg212
g213
sg214
g215
sg216
I6
sssg217
(dp1889
g219
g220
sg221
I1
ssba(idataobj
DispObjShadow
p1890
(dp1891
g69
(dp1892
g71
g72
sg73
I0
sg74
(dp1893
g76
g77
sg81
g82
sg84
g85
sg87
g88
sg89
g90
sg91
g92
ssg93
g72
sg94
g226
sg97
g98
sg99
g72
sg101
g72
sg102
g181
sg104
g229
sg112
g113
ssg24
g1843
sg25
g114
sg47
I0
sg115
(dp1894
g117
g72
sg118
g72
sg119
g72
sg120
I0
sg121
g72
sg122
g72
sg123
g124
sg125
g126
sg127
g128
sg129
(lp1895
sg131
F4.0
sg132
I1
sg133
(lp1896
sg135
g72
sg136
(lp1897
sg138
g92
sg139
I0
sg140
g72
sg141
(lp1898
sg143
I0
sg144
(lp1899
sg146
I0
sg147
(lp1900
sg149
(lp1901
sg151
(lp1902
sg153
(lp1903
sg155
g72
sg156
(lp1904
sg158
I0
sg159
g160
sg161
(lp1905
sg163
g72
sg164
(lp1906
sg166
(lp1907
sg168
I0
sg169
g72
sg170
g72
sg171
(lp1908
sg173
g72
sg174
I00
sg175
I0
sg176
g72
sg128
g92
sg177
I1
sg178
(lp1909
sg180
I0
sg181
g72
sg182
g92
sg183
g72
sg184
g90
sg185
g72
sg186
(lp1910
sg188
g72
sg189
(lp1911
ssg191
(dp1912
g193
F1.0
sg39
S'C84A0295517D4EB39294A3A17E252B18'
p1913
sg195
I01
sg196
I0
sg197
I-1
sg47
I0
sg198
I01
sg199
g72
sg200
g250
sg202
I00
sg203
g72
sg204
(dp1914
g206
g207
sg208
I1
sg209
g210
sg211
I0
sg212
g213
sg214
g215
sg216
I6
sssg217
(dp1915
g219
g253
sg221
I1
ssba(idataobj
DispObjShadow
p1916
(dp1917
g69
(dp1918
g71
g72
sg73
I0
sg74
(dp1919
g76
g77
sg81
g82
sg84
g85
sg87
g88
sg89
g90
sg91
g92
ssg93
g72
sg94
g226
sg97
g98
sg99
g72
sg101
g72
sg102
g258
sg104
g229
sg112
g113
ssg24
g1844
sg25
g259
sg47
I0
sg115
(dp1920
g117
g72
sg118
g72
sg119
g72
sg120
I0
sg121
g72
sg122
g72
sg123
g124
sg125
g126
sg127
g83
sg129
(lp1921
sg131
F4.0
sg132
I1
sg133
(lp1922
sg135
g72
sg136
(lp1923
sg138
g92
sg139
I0
sg140
g72
sg141
(lp1924
sg143
I0
sg144
(lp1925
sg146
I0
sg147
(lp1926
sg149
(lp1927
sg151
(lp1928
sg153
(lp1929
sg155
g72
sg156
(lp1930
sg158
I0
sg159
g160
sg161
(lp1931
sg163
g72
sg164
(lp1932
sg166
(lp1933
sg168
I0
sg169
g72
sg170
g72
sg171
(lp1934
sg173
g72
sg174
I00
sg175
I0
sg176
g72
sg128
g72
sg177
I1
sg178
(lp1935
sg180
I0
sg181
g72
sg182
g83
sg183
g72
sg184
g90
sg185
g72
sg186
(lp1936
sg188
g72
sg189
(lp1937
ssg191
(dp1938
g193
F1.0
sg279
g280
sg39
S'F92EB1B8641745F7BFD6B769C3FF4403'
p1939
sg196
I0
sg47
I0
sg282
g283
sg199
g72
sg200
g284
ssg217
(dp1940
g117
g72
sg118
g72
sg119
g72
sg120
I0
sg121
g72
sg122
g72
sg123
g124
sg125
g126
sg127
g83
sg129
(lp1941
sg131
F4.0
sg132
I1
sg133
(lp1942
sg135
g72
sg136
(lp1943
sg138
g92
sg139
I0
sg140
g72
sg141
(lp1944
sg143
g1844
sg144
(lp1945
sg146
I0
sg147
(lp1946
sg149
(lp1947
sg151
(lp1948
sg153
(lp1949
sg155
g72
sg156
(lp1950
sg158
I0
sg159
g160
sg161
(lp1951
sg163
g72
sg164
(lp1952
sg166
(lp1953
sg168
I0
sg169
g72
sg170
g72
sg171
(lp1954
sg173
g72
sg174
I00
sg175
I0
sg176
g72
sg128
g72
sg177
I1
sg178
(lp1955
sg180
I0
sg181
g72
sg182
g83
sg183
g72
sg184
g90
sg185
g72
sg186
(lp1956
sg188
g72
sg189
(lp1957
ssbasbsS'ModelInfo'
p1958
(dp1959
S'user_file'
p1960
(dp1961
S'generic'
p1962
(lp1963
S'dotCCP4MG'
p1964
aS'generic.ccp4mg'
p1965
aS'C:\\Users\\eliez\\CCP4MG2\\generic.ccp4mg'
p1966
asssS'gui_params'
p1967
(dp1968
S'background_colour'
p1969
(lp1970
I255
aI255
aI255
asS'defaultObjBodyVisibility'
p1971
S'open_all'
p1972
sS'main_toolbar'
p1973
(dp1974
S'toolbar_icon_size'
p1975
S'medium'
p1976
sS'toolbar_loaded_actions'
p1977
(lp1978
S'open'
p1979
aS'download'
p1980
aS'save_status_to_file'
p1981
aS'screenshot'
p1982
aS'view_back'
p1983
aS'view_forward'
p1984
aS'display_back'
p1985
aS'display_forward'
p1986
aS'recentre'
p1987
aS'centreOn'
p1988
aS'clearLabels'
p1989
aS'fog_on'
p1990
aS'slab_on'
p1991
aS'superpose'
p1992
aS'open_movie'
p1993
aS'new_movie'
p1994
aS'preferences'
p1995
aS'picture_wizard'
p1996
aS'PDB search'
p1997
aS'Geometry'
p1998
aS'Glycan viewer'
p1999
aS'Download electron density'
p2000
aS'Pisa structure analysis'
p2001
aS'ProSMART analysis'
p2002
aS'Sequence viewer'
p2003
aS'Simpler Display Table'
p2004
asS'toolbar_style'
p2005
S'icon_only'
p2006
ssS'last_directory'
p2007
S'C:/Users/eliez/OneDrive/Tesis y titulacion/Antimicrobial_Peptides_QSAR_Prediction_Project/PrediccionNovelPeptides/Modelamiento/08.AKVRLLITRLKKKFLIGRRDK'
p2008
sS'rockParams'
p2009
(dp2010
S'rollorientation'
p2011
S'y'
p2012
sS'rollspeed'
p2013
F0.5
sS'rockspeed'
p2014
F0.5
sS'rockangle'
p2015
I20
ssS'show_scale'
p2016
I0
sS'centre_mode'
p2017
I0
sS'show_axes'
p2018
I0
ssS'AllModelInfo'
p2019
(dp2020
g347
(iModelInfo
ModInfo
p2021
(dp2022
S'ccp4mg_version'
p2023
g51
sS'pdbfile'
p2024
g355
sbsg21
(iModelInfo
ModInfo
p2025
(dp2026
g2023
g51
sg2024
g35
sbsg1838
(iModelInfo
ModInfo
p2027
(dp2028
g2023
g51
sS'user_colour_schemes'
p2029
(dp2030
S'hidropall'
p2031
(lp2032
(lp2033
S'blue'
p2034
ag72
aa(lp2035
S'red'
p2036
a(lp2037
NaS'/*/*/(ALA,VAL,PRO,LEU,ILE,MET,PHE,TRP)/*:*'
p2038
aaassg2024
S'C:/Users/eliez/OneDrive/Tesis y titulacion/Antimicrobial_Peptides_QSAR_Prediction_Project/PrediccionNovelPeptides/Modelamiento/04.LFILNRAKRPKKSKIGLPRKITK\\ampFinal04-model43.pdb'
p2039
sbsg1468
(iModelInfo
ModInfo
p2040
(dp2041
g2023
g51
sg2024
g1476
sbsg1837
(iModelInfo
ModInfo
p2042
(dp2043
g2023
g51
sg2029
(dp2044
S'hidrop'
p2045
(lp2046
(lp2047
S'blue'
p2048
ag72
aa(lp2049
S'red'
p2050
a(lp2051
NaS'/*/*/(ALA,VAL,PRO,LEU,ILE,MET,PHE,TRP)/*:*'
p2052
aaassg2024
g1846
sbsg1589
(iModelInfo
ModInfo
p2053
(dp2054
g2023
g51
sg2024
g1597
sbssS'light'
p2055
(dp2056
I0
(dp2057
g1767
(F0.0
F0.0
F60.0
tp2058
sS'on'
p2059
I1
sS'specular'
p2060
(F1.0
F1.0
F1.0
tp2061
sS'diffuse'
p2062
(F1.0
F1.0
F1.0
tp2063
sS'ambient'
p2064
(F0.0
F0.0
F0.0
tp2065
ssS'nLights'
p2066
I1
ssS'fonts'
p2067
(dp2068
S'atom_label'
p2069
(dp2070
S'size'
p2071
I13
sS'underline'
p2072
I0
sS'weight'
p2073
S'normal'
p2074
sS'family'
p2075
csip
_unpickle_type
p2076
(S'PyQt4.QtCore'
p2077
S'QString'
p2078
(VMS Shell Dlg 2
p2079
tp2080
tp2081
Rp2082
sS'slant'
p2083
S'r'
p2084
ssS'applicationFont'
p2085
(dp2086
g2071
I8
sg2072
I0
sg2073
g2074
sg2075
g2076
(g2077
S'QString'
p2087
(VMS Shell Dlg 2
p2088
tp2089
tp2090
Rp2091
sg2083
g2084
ssS'annotation'
p2092
(dp2093
g2071
I18
sg2072
I0
sg2073
g2074
sg2075
g2076
(g2077
S'QString'
p2094
(VMS Shell Dlg 2
p2095
tp2096
tp2097
Rp2098
sg2083
g2084
ssS'pick_atom_label'
p2099
(dp2100
g2071
I13
sg2072
I0
sg2073
g2074
sg2075
g2076
(g2077
S'QString'
p2101
(VMS Shell Dlg 2
p2102
tp2103
tp2104
Rp2105
sg2083
g2084
ssS'legend'
p2106
(dp2107
g2071
I32
sg2072
I0
sg2073
g2074
sg2075
g2076
(g2077
S'QString'
p2108
(VMS Shell Dlg 2
p2109
tp2110
tp2111
Rp2112
sg2083
g2084
sssg1838
(idataobj
DataObjShadow
p2113
(dp2114
g24
g1838
sg25
g26
sg27
(lp2115
S'ampFinal04_model43MolDisp1'
p2116
aS'ampFinal04_model43MolDisp2'
p2117
aS'ampFinal04_model43SurfaceDispobj3'
p2118
asg32
(lp2119
g34
ag2039
ag2039
asg36
(dp2120
g38
I1
sg39
S'51127013626E4367BAE56C62F03ACA78'
p2121
sg41
g974
sg43
I1
sg25
g26
sg44
I1
sg45
g46
sg32
g2119
sg47
I1
sg48
g49
sg50
g51
sg52
(dp2122
g54
(lp2123
sg56
(lp2124
sg58
g59
sg60
(lp2125
sg62
I1
ssg63
S'Ligand_binding_site:Site_and_ribbons_by_PDB_file'
p2126
ssg47
I1
sg65
(lp2127
(idataobj
DispObjShadow
p2128
(dp2129
g69
(dp2130
g71
g72
sg73
I0
sg74
(dp2131
g76
g77
sg81
g82
sg84
g85
sg87
g88
sg89
g90
sg91
g92
ssg93
g72
sg94
(lp2132
S'hidropall'
p2133
aS'ampFinal04_model43'
p2134
asg97
g98
sg99
S'<span style="color:;">User colour rules </span>\n</p><p><span style="color:red;">/*/*/(ALA,VAL,PRO,LEU,ILE </span>\n</p><p>'
p2135
sg101
g72
sg102
g103
sg104
g2032
sg112
g113
ssg24
g2116
sg25
g114
sg47
I0
sg115
(dp2136
g117
g72
sg118
g72
sg119
g72
sg120
I0
sg121
g72
sg122
g72
sg123
g124
sg125
g126
sg127
g128
sg129
(lp2137
sg131
F4.0
sg132
I1
sg133
(lp2138
sg135
g72
sg136
(lp2139
sg138
g92
sg139
I0
sg140
g72
sg141
(lp2140
sg143
I0
sg144
(lp2141
sg146
I0
sg147
(lp2142
sg149
(lp2143
sg151
(lp2144
sg153
(lp2145
sg155
g72
sg156
(lp2146
sg158
I0
sg159
g160
sg161
(lp2147
sg163
g72
sg164
(lp2148
sg166
(lp2149
sg168
I0
sg169
g72
sg170
g72
sg171
(lp2150
sg173
g72
sg174
I00
sg175
I0
sg176
g72
sg128
g83
sg177
I1
sg178
(lp2151
sg180
I0
sg181
g72
sg182
g83
sg183
g72
sg184
g90
sg185
g72
sg186
(lp2152
sg188
g72
sg189
(lp2153
ssg191
(dp2154
g193
F1.0
sg39
S'B9DDC050A091435A83288D204F4A746A'
p2155
sg195
I01
sg196
I0
sg197
I-1
sg47
I0
sg198
I01
sg199
g72
sg200
g201
sg202
I00
sg203
g72
sg204
(dp2156
g206
g207
sg208
I1
sg209
g210
sg211
I0
sg212
g213
sg214
g215
sg216
I6
sssg217
(dp2157
g219
g220
sg221
I1
ssba(idataobj
DispObjShadow
p2158
(dp2159
g69
(dp2160
g71
g72
sg73
I0
sg74
(dp2161
g76
g77
sg81
g82
sg84
g85
sg87
g88
sg89
g90
sg91
g92
ssg93
g72
sg94
g226
sg97
g98
sg99
g72
sg101
g72
sg102
g181
sg104
g229
sg112
g113
ssg24
g2117
sg25
g114
sg47
I0
sg115
(dp2162
g117
g72
sg118
g72
sg119
g72
sg120
I0
sg121
g72
sg122
g72
sg123
g124
sg125
g126
sg127
g128
sg129
(lp2163
sg131
F4.0
sg132
I1
sg133
(lp2164
sg135
g72
sg136
(lp2165
sg138
g92
sg139
I0
sg140
g72
sg141
(lp2166
sg143
I0
sg144
(lp2167
sg146
I0
sg147
(lp2168
sg149
(lp2169
sg151
(lp2170
sg153
(lp2171
sg155
g72
sg156
(lp2172
sg158
I0
sg159
g160
sg161
(lp2173
sg163
g72
sg164
(lp2174
sg166
(lp2175
sg168
I0
sg169
g72
sg170
g72
sg171
(lp2176
sg173
g72
sg174
I00
sg175
I0
sg176
g72
sg128
g92
sg177
I1
sg178
(lp2177
sg180
I0
sg181
g72
sg182
g92
sg183
g72
sg184
g90
sg185
g72
sg186
(lp2178
sg188
g72
sg189
(lp2179
ssg191
(dp2180
g193
F1.0
sg39
S'D04E5CBD360D472F97A23CEBD7F290FF'
p2181
sg195
I01
sg196
I0
sg197
I-1
sg47
I0
sg198
I01
sg199
g72
sg200
g250
sg202
I00
sg203
g72
sg204
(dp2182
g206
g207
sg208
I1
sg209
g210
sg211
I0
sg212
g213
sg214
g215
sg216
I6
sssg217
(dp2183
g219
g253
sg221
I1
ssba(idataobj
DispObjShadow
p2184
(dp2185
g69
(dp2186
g71
g72
sg73
I0
sg74
(dp2187
g76
g77
sg81
g82
sg84
g85
sg87
g88
sg89
g90
sg91
g92
ssg93
g72
sg94
g226
sg97
g98
sg99
g72
sg101
g72
sg102
g258
sg104
g229
sg112
g113
ssg24
g2118
sg25
g259
sg47
I0
sg115
(dp2188
g117
g72
sg118
g72
sg119
g72
sg120
I0
sg121
g72
sg122
g72
sg123
g124
sg125
g126
sg127
g83
sg129
(lp2189
sg131
F4.0
sg132
I1
sg133
(lp2190
sg135
g72
sg136
(lp2191
sg138
g92
sg139
I0
sg140
g72
sg141
(lp2192
sg143
I0
sg144
(lp2193
sg146
I0
sg147
(lp2194
sg149
(lp2195
sg151
(lp2196
sg153
(lp2197
sg155
g72
sg156
(lp2198
sg158
I0
sg159
g160
sg161
(lp2199
sg163
g72
sg164
(lp2200
sg166
(lp2201
sg168
I0
sg169
g72
sg170
g72
sg171
(lp2202
sg173
g72
sg174
I00
sg175
I0
sg176
g72
sg128
g72
sg177
I1
sg178
(lp2203
sg180
I0
sg181
g72
sg182
g83
sg183
g72
sg184
g90
sg185
g72
sg186
(lp2204
sg188
g72
sg189
(lp2205
ssg191
(dp2206
g193
F1.0
sg279
g280
sg39
S'8685766C6C1F494CBC8DA2FF522A50ED'
p2207
sg196
I0
sg47
I0
sg282
g283
sg199
g72
sg200
g284
ssg217
(dp2208
g117
g72
sg118
g72
sg119
g72
sg120
I0
sg121
g72
sg122
g72
sg123
g124
sg125
g126
sg127
g83
sg129
(lp2209
sg131
F4.0
sg132
I1
sg133
(lp2210
sg135
g72
sg136
(lp2211
sg138
g92
sg139
I0
sg140
g72
sg141
(lp2212
sg143
g2118
sg144
(lp2213
sg146
I0
sg147
(lp2214
sg149
(lp2215
sg151
(lp2216
sg153
(lp2217
sg155
g72
sg156
(lp2218
sg158
I0
sg159
g160
sg161
(lp2219
sg163
g72
sg164
(lp2220
sg166
(lp2221
sg168
I0
sg169
g72
sg170
g72
sg171
(lp2222
sg173
g72
sg174
I00
sg175
I0
sg176
g72
sg128
g72
sg177
I1
sg178
(lp2223
sg180
I0
sg181
g72
sg182
g83
sg183
g72
sg184
g90
sg185
g72
sg186
(lp2224
sg188
g72
sg189
(lp2225
ssbasbsS'pick_labels'
p2226
(dp2227
S'max_labels'
p2228
I20
sg211
I0
sg216
I6
sg206
(lp2229
I0
aI0
aI0
aI1
aI1
aI1
aI1
aI0
aI0
aI0
aI0
aI0
aI0
aI0
aI0
aI0
assS'file_viewer'
p2230
(dp2231
S'supported_plugins'
p2232
(dp2233
ssS'windowGeometry'
p2234
g2076
(g2077
S'QByteArray'
p2235
(S'\x01\xd9\xd0\xcb\x00\x01\x00\x00\xff\xff\xff\xf7\xff\xff\xff\xf7\x00\x00\x07\x88\x00\x00\x04\x04\x00\x00\x00=\x00\x00\x00?\x00\x00\x06i\x00\x00\x03\xc0\x00\x00\x00\x00\x02\x00'
p2236
tp2237
tp2238
Rp2239
s.