(dp0
S'Legends&Images'
p1
(idataobj
DataObjShadow
p2
(dp3
S'name'
p4
g1
sS'object_type'
p5
S'GL2dScreen'
p6
sS'objnames'
p7
(lp8
S'Legend'
p9
asS'filename'
p10
S''
p11
sS'dataparams'
p12
(dp13
S'expanded'
p14
I1
sS'uuid'
p15
S'CB08ED0C48E949D3AA5960CB0E14D97B'
p16
sg5
g6
sS'module'
p17
g9
sg10
(lp18
g11
ag11
ag11
asS'visible'
p19
I1
sS'ccp4mg_creator_version'
p20
S'2.10.11'
p21
ssg19
I1
sS'objinsts'
p22
(lp23
(idataobj
DispObjShadow
p24
(dp25
g19
I1
sg5
g9
sS'params'
p26
(dp27
S'opacity'
p28
F1.0
sS'selection'
p29
S'<!DOCTYPE HTML PUBLIC "-//W3C//DTD HTML 4.0//EN" "http://www.w3.org/TR/REC-html40/strict.dtd">\n<html><head><meta name="qrichtext" content="1" /><style type="text/css">\np, li { white-space: pre-wrap; }\n</style></head><body style=" font-family:\'MS Shell Dlg 2\'; font-size:8pt; font-weight:400; font-style:normal;">\n<p style=" margin-top:0px; margin-bottom:0px; margin-left:0px; margin-right:0px; -qt-block-indent:0; text-indent:0px;"><span style=" font-family:\'Times New Roman\'; font-size:14pt; font-weight:600;">                                      NPEP857629:</span></p>\n<p style=" margin-top:0px; margin-bottom:0px; margin-left:0px; margin-right:0px; -qt-block-indent:0; text-indent:0px;"><span style=" font-family:\'Times New Roman\'; font-size:14pt; font-weight:600; color:#00008c;">KKLVKLKRGSQKKRILYYVGIPTLFKAAFKRISKL</span></p>\n<p style="-qt-paragraph-type:empty; margin-top:0px; margin-bottom:0px; margin-left:0px; margin-right:0px; -qt-block-indent:0; text-indent:0px; font-family:\'Arial\'; font-size:12pt; font-weight:600;"><br /></p></body></html>'
p30
sg15
S'05973B4FAB39427ABEC1458032781ADA'
p31
sS'legend_visible'
p32
I0
sg19
I1
sS'customSelectionName'
p33
g11
sS'position'
p34
(lp35
F0.3
aF0.01
asS'display_class'
p36
g11
ssg4
g9
sbasbsS'params2'
p37
(dp38
S'save_session_options'
p39
(dp40
S'backup_data_files'
p41
I0
sS'restore_data'
p42
I1
sS'interpret_old_selections'
p43
I1
sS'save_projects'
p44
I0
sS'ask_restore_data'
p45
I0
ssS'download_preferences'
p46
(dp47
S'PDBJapan_Search'
p48
S'pdbjs3.protein.osaka-u.ac.jp/xPSSS/index.html'
p49
sS'RCSB_Download_CIF'
p50
S'http://www.rcsb.org/pdb/files/PDBID.cif'
p51
sS'EBI_Download_CIF'
p52
S'https://www.ebi.ac.uk/pdbe/entry-files/download/PDBID.cif'
p53
sS'http_proxy'
p54
g11
sS'PDBJapan_Download_PDB'
p55
S'ftp://www.pdbj.org/pdb_nc/pdbPDBID.ent'
p56
sS'preferred_site'
p57
S'EBI'
p58
sS'EBI_Download_PDB'
p59
S'https://www.ebi.ac.uk/pdbe/entry-files/download/pdbPDBID.ent'
p60
sS'RCSB_Search'
p61
S'www.rcsb.org/pdb'
p62
sS'PDBJapan_Download_CIF'
p63
S'ftp://ftp.pdbj.org/mmcif/PDBID.cif.gz'
p64
sS'http_user'
p65
g11
sS'RCSB_Download_PDB'
p66
S'http://www.rcsb.org/pdb/files/PDBID.pdb'
p67
sS'http_password'
p68
g11
sS'EBI_Search'
p69
S'www.ebi.ac.uk/msd-srv/msdlite/index.html'
p70
ssS'MapDispParamsManager'
p71
(dp72
S'inside_shiny'
p73
I1
sS'dot_size'
p74
F1.0
sS'radius'
p75
F10.0
sS'diff_neg_colour'
p76
S'red'
p77
sS'first_colour'
p78
S'blue'
p79
sS'line_width'
p80
F1.0
sS'contour_sigma_max'
p81
F5.0
sS'cylinder_width'
p82
F0.03
sS'double_side'
p83
I0
sS'diff_pos_colour'
p84
S'green'
p85
sS'inside_colour'
p86
S'default'
p87
sS'other_colour'
p88
S'magenta'
p89
sS'ncontours'
p90
I1
sS'contour_scale'
p91
S'absolute'
p92
sS'dot_spacing'
p93
F0.3
sS'surface_style'
p94
S'surface_style_chickenwire'
p95
sS'sampling_rate'
p96
F0.75
ssS'HBond_param'
p97
(dp98
S'max_H_A'
p99
F2.5
sS'min_D_H_A'
p100
F90.0
sS'min_DD_D_A'
p101
F90.0
sS'min_H_A_AA'
p102
F90.0
sS'max_D_A_S'
p103
F3.9
sS'max_D_A'
p104
F3.1
sS'min_D_A_AA'
p105
F90.0
sS'min_D_A'
p106
F2.0
ssS'screenshot_preferences'
p107
(dp108
S'offscreen'
p109
I1
sS'antialias'
p110
I1
ssS'Surface_electro'
p111
(dp112
S'ranges'
p113
(lp114
F0.0
aF-0.5
aF0.0
aF0.5
aF0.0
asS'colours'
p115
(lp116
S'red'
p117
aS'red'
p118
aS'white'
p119
aS'blue'
p120
aS'blue'
p121
asS'colour_wheel_direction'
p122
S'clockwise'
p123
sS'interpolate_mode'
p124
S'HSV'
p125
ssS'atom_label_params'
p126
(dp127
S'truncate_mol_name'
p128
I0
sS'show_number_label'
p129
I0
sS'label_select'
p130
S'label_no'
p131
sS'truncate_mol_name_length'
p132
I6
sS'label_style'
p133
(lp134
I0
aI0
aI0
aI1
aI1
aI1
aI1
aI0
aI0
aI0
aI0
aI0
aI0
aI0
aI0
aI0
assS'SecStr_param'
p135
(dp136
S'min_helix_length'
p137
I4
sS'flagBulge'
p138
I1
ssS'geometry_preferences'
p139
(dp140
S'style'
p141
S'Line'
p142
sS'single_click_label'
p143
I1
sS'angles_dp'
p144
I1
sS'width'
p145
I4
sS'bonds_dp'
p146
I2
sS'show_angles'
p147
I0
sS'show_torsions'
p148
I0
sS'line_colour'
p149
S'red'
p150
sS'text_colour'
p151
S'default'
p152
ssS'render_quality'
p153
(dp154
S'use_vbo'
p155
I1
sS'use_ambocc'
p156
I0
sS'smooth_line'
p157
I1
sS'use_outline'
p158
I0
sS'force_use_va'
p159
I1
sS'use_shadows'
p160
I0
sS'use_shaders'
p161
I0
sS'solid_quality'
p162
I1
ssS'centre_mode'
p163
(dp164
S'centre_method'
p165
I0
ssS'miscell_prefs'
p166
(dp167
S'text_label_background'
p168
I0
sS'flip_text'
p169
I0
sS'fog_text'
p170
I0
sS'depth_text'
p171
I0
sS'text_label_background_colour'
p172
S'white'
p173
ssS'Surface_map'
p174
(dp175
g113
(lp176
F0.0
aF-0.5
aF0.0
aF0.5
aF0.0
asg115
(lp177
S'red'
p178
aS'red'
p179
aS'white'
p180
aS'blue'
p181
aS'blue'
p182
asg122
g123
sg124
g125
ssS'ambient_occlusion_prefs'
p183
(dp184
S'ambocc_znear'
p185
F100.0
sS'ambocc_bias'
p186
F0.3
sS'ambocc_radius'
p187
F15.0
sS'ambocc_scale'
p188
F1.0
sS'ambocc_zfar'
p189
F150.0
ssS'Animation_param'
p190
(dp191
S'delay'
p192
F0.1
sS'flash_delay'
p193
F0.5
sS'update_properties'
p194
I1
ssS'model_drawing_style'
p195
(dp196
S'fat_bond_width'
p197
I4
sS'bond_width'
p198
I2
sS'thin_bond_width'
p199
I1
sS'glycoblock_interaction_dash_length'
p200
F0.36
sS'arrow_length'
p201
F2.2
sS'anisou_scale_byvdw'
p202
I0
sS'grey_ribbon_edge'
p203
I0
sS'worm_width'
p204
F0.2
sS'glycoblock_interaction_line_width'
p205
I2
sS'loop_frac'
p206
I1
sS'dashed_bond_length'
p207
F0.3
sS'dashed_bonds'
p208
I0
sS'glycoblock_interaction_cylinder_radius'
p209
F0.1
sS'glycoblock_draw_cov_protein_interactions'
p210
I1
sS'ballstick_stick'
p211
F0.1
sS'glycoblock_interaction_style'
p212
S'Dashed cylinder'
p213
sS'helix_style'
p214
I0
sS'helix_tube_diameter'
p215
F1.5
sS'sphere_radii_scale'
p216
F1.0
sS'base_block_thickness'
p217
F0.2
sS'anisou_style'
p218
S'solidaxes'
p219
sS'ball_radii_scale'
p220
F0.2
sS'deloc_ring'
p221
I0
sS'anisou_scale'
p222
F1.0
sS'flatten_loop'
p223
I0
sS'glycoblock_scale'
p224
F1.3
sS'glycoblock_interaction_colour'
p225
S'black'
p226
sS'flatten_beta'
p227
I1
sS'ribbon_width'
p228
F2.5
sS'glycoblock_stick_colour'
p229
g226
sS'nucleic_stick_width'
p230
F0.4
sS'glycoblock_label_protein_interactions'
p231
I0
sS'show_multiple_bonds'
p232
I0
sS'arrow_width'
p233
F2.2
sS'glycoblock_draw_protein_interactions'
p234
I0
sS'trace_cutoff'
p235
F4.8
sS'alpha_helix_width'
p236
F1.5
sS'pyramid_size'
p237
F0.1
sS'spline_beta_flat'
p238
I1
sg82
F0.2
sS'glycoblock_thickness'
p239
F0.35
sS'two_colour_ribbon'
p240
I0
sS'ribbon_style'
p241
I0
ssS'hydrophobicity_preferences'
p242
(dp243
sS'Contacts_param'
p244
(dp245
S'test_VDW_radius'
p246
I0
sS'VDW_fraction_min'
p247
F0.0
sS'simple_min_cutoff'
p248
F0.0
sS'label_VDW_radius'
p249
I0
sS'exclude_hbondable'
p250
I0
sS'simple_max_cutoff'
p251
F4.0
sS'VDW_fraction_max'
p252
F0.9
sS'test_metal_coord_distance'
p253
I1
ssS'socket_preferences'
p254
(dp255
S'local_only'
p256
I1
sS'open_socket'
p257
I0
ssS'stereo_prefs'
p258
(dp259
S'stereo_mode'
p260
I1
sS'shear_sep'
p261
F0.1
sS'rot_sep'
p262
F6.0
ssS'restype'
p263
(dp264
g113
(lp265
S'*'
p266
aS'PHE'
p267
aS'TRP'
p268
aS'TYR'
p269
aS'PRO'
p270
aS'VAL'
p271
aS'ALA'
p272
aS'ILE'
p273
aS'LEU'
p274
aS'SER'
p275
aS'THR'
p276
aS'ASN'
p277
aS'GLN'
p278
aS'ARG'
p279
aS'LYS'
p280
aS'ASP'
p281
aS'GLU'
p282
aS'CYS'
p283
aS'MET'
p284
aS'GLY'
p285
aS'HIS'
p286
aS'A'
p287
aS'T'
p288
aS'G'
p289
aS'C'
p290
aS'U'
p291
aS'DA'
p292
aS'DT'
p293
aS'DG'
p294
aS'DC'
p295
aS'ADE'
p296
aS'THY'
p297
aS'GUA'
p298
aS'CYT'
p299
aS'URA'
p300
aS'BMA'
p301
aS'MAN'
p302
aS'NAG'
p303
aS'GLC'
p304
aS'BGC'
p305
aS'GCS'
p306
aS'GAL'
p307
aS'NGA'
p308
aS'MGC'
p309
aS'NG1'
p310
aS'NG6'
p311
aS'A2G'
p312
aS'6MN'
p313
aS'GLP'
p314
aS'GP4'
p315
aS'BEM'
p316
aS'KDN'
p317
aS'XLS'
p318
aS'CXY'
p319
aS'RBY'
p320
aS'TDX'
p321
aS'XYL'
p322
aS'XYS'
p323
aS'XYP'
p324
aS'FCA'
p325
aS'FCB'
p326
aS'FUC'
p327
aS'GTR'
p328
aS'ADA'
p329
aS'DGU'
p330
aS'SI3'
p331
aS'NCC'
p332
aS'NGF'
p333
aS'NGE'
p334
aS'NGC'
p335
aS'GC4'
p336
aS'GCD'
p337
aS'GCU'
p338
aS'GCV'
p339
aS'GCW'
p340
aS'IDS'
p341
aS'REL'
p342
aS'IDR'
p343
aS'SIA'
p344
asg115
(lp345
S'grey'
p346
aS'magenta'
p347
aS'magenta'
p348
aS'magenta'
p349
aS'coral'
p350
aS'coral'
p351
aS'coral'
p352
aS'coral'
p353
aS'coral'
p354
aS'cyan'
p355
aS'cyan'
p356
aS'cyan'
p357
aS'cyan'
p358
aS'blue'
p359
aS'blue'
p360
aS'red'
p361
aS'red'
p362
aS'yellow'
p363
aS'yellow'
p364
aS'white'
p365
aS'light blue'
p366
aS'red'
p367
aS'yellow'
p368
aS'green'
p369
aS'blue'
p370
aS'magenta'
p371
aS'red'
p372
aS'yellow'
p373
aS'green'
p374
aS'blue'
p375
aS'red'
p376
aS'yellow'
p377
aS'green'
p378
aS'blue'
p379
aS'magenta'
p380
aS'green'
p381
aS'green'
p382
aS'blue'
p383
aS'blue'
p384
aS'blue'
p385
aS'blue'
p386
aS'yellow'
p387
aS'yellow'
p388
aS'yellow'
p389
aS'yellow'
p390
aS'yellow'
p391
aS'yellow'
p392
aS'blue'
p393
aS'blue'
p394
aS'blue'
p395
aS'green'
p396
aS'light green'
p397
aS'coral'
p398
aS'coral'
p399
aS'coral'
p400
aS'coral'
p401
aS'coral'
p402
aS'coral'
p403
aS'coral'
p404
aS'red'
p405
aS'red'
p406
aS'red'
p407
aS'yellow'
p408
aS'yellow'
p409
aS'yellow'
p410
aS'purple'
p411
aS'purple'
p412
aS'light blue'
p413
aS'light blue'
p414
aS'light blue'
p415
aS'blue'
p416
aS'blue'
p417
aS'blue'
p418
aS'blue'
p419
aS'blue'
p420
aS'blue'
p421
aS'blue'
p422
aS'pale brown'
p423
aS'purple'
p424
asg122
S'clockwise'
p425
sg124
S'HSV'
p426
ssS'smiles_preferences'
p427
(dp428
S'niter'
p429
I200
sS'nconf'
p430
I20
ssS'surface_drawing_style'
p431
(dp432
g73
I1
sg80
F1.0
sS'probe_radius'
p433
F1.5
sS'resolution_delta'
p434
I30
sg93
F0.1
sS'blend_edges'
p435
I0
sg74
F1.0
sg83
I0
sg86
S'default'
p436
sS'context_cutoff'
p437
F6.0
sS'warning_on'
p438
I1
sS'warning_limit'
p439
I1000
ssS'sequence_preferences'
p440
(dp441
S'muscle_exe'
p442
g11
sS'cobalt_dir'
p443
g11
sS'colouring_mode'
p444
I0
sS'blastdb_exe'
p445
g11
sS'cobalt_exe'
p446
g11
sS'mrbump_ccp4_dir'
p447
g11
sS'min_seq_length'
p448
I10
sS'blast_db'
p449
g11
sS'blastp_exe'
p450
g11
sS'font_size'
p451
I12
sS'blastn_exe'
p452
g11
sS'allow_remote_blast'
p453
I0
ssS'advanced_options'
p454
(dp455
S'iconized_display_table'
p456
I0
sS'super_compact_display_table'
p457
I0
sS'dockable_display_table'
p458
I1
sS'developer_mode'
p459
I0
ssS'atomtype'
p460
(dp461
g113
(lp462
g266
aS' C'
p463
aS' O'
p464
aS' N'
p465
aS' S'
p466
aS' H'
p467
aS' P'
p468
asg115
(lp469
S'grey'
p470
aS'green'
p471
aS'red'
p472
aS'blue'
p473
aS'yellow'
p474
aS'grey'
p475
aS'magenta'
p476
asg122
g425
sg124
g426
ssS'secstr'
p477
(dp478
g113
(lp479
S'No structure'
p480
aS'Beta strand'
p481
aS'Beta bulge'
p482
aS'3-turn'
p483
aS'4-turn'
p484
aS'5-turn'
p485
aS'Alpha helix'
p486
asg115
(lp487
S'grey'
p488
aS'blue'
p489
aS'blue'
p490
aS'pink'
p491
aS'tan'
p492
aS'coral'
p493
aS'red'
p494
asg122
g425
sg124
g426
ssS'HBond_drawing_style'
p495
(dp496
g80
I2
sS'contacts_line_width'
p497
I2
sS'contacts_label_mode'
p498
I1
sS'line_style'
p499
S'lines'
p500
sS'contacts_line_style'
p501
g500
sS'label_mode'
p502
I0
ssS'SASArea_param'
p503
(dp504
S'list_selection_2'
p505
g11
sS'exclude_non_polymer'
p506
I1
sS'brick_margin'
p507
F5.0
sS'list_selection_1'
p508
S'polar_atoms'
p509
sS'limit_selection'
p510
S'amino_acid'
p511
sS'HOHrad'
p512
F1.4
sS'point_density'
p513
F1.0
sS'exclude_solvent'
p514
I1
ssS'movie_preferences'
p515
(dp516
S'show_progress'
p517
I1
sS'player_exe'
p518
S'mplayer'
p519
sS'ffmpeg_exe'
p520
S'ffmpeg'
p521
sS'mencoder_exe'
p522
S'mencoder'
p523
sS'player_command'
p524
S'-loop 0'
p525
sS'convert_command'
p526
S'-quality 100'
p527
sS'mencoder_merge_command'
p528
S'-ovc copy'
p529
sS'convert_exe'
p530
S'convert'
p531
sS'mencoder_command'
p532
S'-ovc lavc -lavcopts vcodec=msmpeg4v2:vbitrate=1800'
p533
sS'ffmpeg_command'
p534
S'-f mpeg -vcodec mpeg1video -ar 48000 -b 7000000 -ab 192000 -y'
p535
sssS'gui_params'
p536
(dp537
S'background_colour'
p538
(lp539
I255
aI255
aI255
asS'defaultObjBodyVisibility'
p540
S'open_all'
p541
sS'main_toolbar'
p542
(dp543
S'toolbar_icon_size'
p544
S'medium'
p545
sS'toolbar_loaded_actions'
p546
(lp547
S'open'
p548
aS'download'
p549
aS'save_status_to_file'
p550
aS'screenshot'
p551
aS'view_back'
p552
aS'view_forward'
p553
aS'display_back'
p554
aS'display_forward'
p555
aS'recentre'
p556
aS'centreOn'
p557
aS'clearLabels'
p558
aS'fog_on'
p559
aS'slab_on'
p560
aS'superpose'
p561
aS'open_movie'
p562
aS'new_movie'
p563
aS'preferences'
p564
aS'picture_wizard'
p565
aS'PDB search'
p566
aS'Geometry'
p567
aS'Glycan viewer'
p568
aS'Download electron density'
p569
aS'Pisa structure analysis'
p570
aS'ProSMART analysis'
p571
aS'Sequence viewer'
p572
aS'Simpler Display Table'
p573
asS'toolbar_style'
p574
S'icon_only'
p575
ssS'last_directory'
p576
S'C:/Users/eliez/OneDrive/Tesis y titulacion/Antimicrobial_Peptides_QSAR_Prediction_Project/PrediccionNovelPeptides/Modelamiento/02.KKLVKLKRGSQKKRILYYVGIPTLFKAAFKRISKL'
p577
sS'rockParams'
p578
(dp579
S'rollorientation'
p580
S'y'
p581
sS'rollspeed'
p582
F0.5
sS'rockspeed'
p583
F0.5
sS'rockangle'
p584
I20
ssS'show_scale'
p585
I0
sS'centre_mode'
p586
I0
sS'show_axes'
p587
I0
ssS'picture_wizard'
p588
(dp589
S'recentre_after_wizard'
p590
I1
sS'keep_display_objects'
p591
I0
sS'recentre'
p592
I0
sS'hide_unselected_dataobj'
p593
I0
sS'show_wizard_choices'
p594
I0
sS'default_drawing_style'
p595
S'Ligand_binding_site:Site_and_ribbons_by_PDB_file'
p596
ssS'view2'
p597
(dp598
S'scale'
p599
F72.66813071039145
sS'fog_strength'
p600
I0
sS'transparency'
p601
I00
sS'fog_auto'
p602
I00
sS'quat'
p603
(lp604
F0.23703470743182034
aF0.07302607801726947
aF0.578611878733435
aF0.7769749244293213
asS'slab_auto'
p605
I00
sS'pos'
p606
(lp607
F-35.41004472905644
aF-35.24235631671033
aF-36.17010030798988
asS'customClipPlanes'
p608
(lp609
sS'slab_offset'
p610
I0
sS'clip_cap'
p611
I00
sS'fog_near'
p612
F-0.0
sS'slab_enabled'
p613
I00
sS'fog_enabled'
p614
I01
sS'slab_width'
p615
I10
sS'fog_far'
p616
F20.0
ssS'applications'
p617
(dp618
S'picture_wizard'
p619
(dp620
g590
I1
sg591
I0
sg592
I0
sg593
I0
sg594
I0
sg595
g596
ssS'Superpose'
p621
(dp622
S'fixed_mask_colour'
p623
S'blue'
p624
sS'monomer_keep_matches'
p625
I0
sS'apply_interactive_all'
p626
I0
sS'close_atoms_res_cutoff'
p627
F2.0
sS'show_mask'
p628
I0
sS'close_atoms_cutoff'
p629
F0.5
sS'close_atoms_initial_global'
p630
I0
sS'show_equiv_mol'
p631
S'model2'
p632
sS'show_equivalents'
p633
I0
sS'close_atoms_central_atom'
p634
S' CA '
p635
sS'show_distances'
p636
I1
sS'moving_mask_colour'
p637
S'dark purple'
p638
sS'fixed'
p639
S'model1'
p640
sS'selected_atoms_mode'
p641
S'catrace'
p642
sS'conn_colour'
p643
g226
sS'superposeModels'
p644
(dp645
S'model3'
p646
(dp647
S'matches'
p648
(lp649
sS'on'
p650
I1
sS'MolData_name'
p651
g646
sS'selection'
p652
S'all'
p653
sS'fixed_MolData_name'
p654
g640
ssg632
(dp655
g648
(lp656
(dp657
g650
I1
sS'qualifier'
p658
g11
sS'sele2'
p659
g11
sS'sele1'
p660
g11
sS'mode'
p661
S'range'
p662
sS'close'
p663
I0
sasg650
I1
sg651
g632
sg652
S'all'
p664
sg654
g640
ssg640
(dp665
g648
(lp666
sg650
I1
sg651
g640
sg652
S'all'
p667
sg654
g640
ssS'model5'
p668
(dp669
g648
(lp670
sg650
I1
sg651
g668
sg652
S'all'
p671
sg654
g640
ssS'model4'
p672
(dp673
g648
(lp674
sg650
I1
sg651
g672
sg652
S'all'
p675
sg654
g640
sssS'method'
p676
S'close'
p677
sS'selected_atoms_selection'
p678
(lp679
S'CA'
p680
aS'CB'
p681
asssS'AllModelInfo'
p682
(dp683
S'ampFinal02_model74'
p684
(iModelInfo
ModInfo
p685
(dp686
S'ccp4mg_version'
p687
g21
sS'pdbfile'
p688
S'C:/Users/eliez/OneDrive/Tesis y titulacion/Antimicrobial_Peptides_QSAR_Prediction_Project/PrediccionNovelPeptides/Modelamiento/02.KKLVKLKRGSQKKRILYYVGIPTLFKAAFKRISKL\\ampFinal02-model74.pdb'
p689
sbssS'light'
p690
(dp691
I0
(dp692
g34
(F0.0
F0.0
F60.0
tp693
sS'on'
p694
I1
sS'specular'
p695
(F1.0
F1.0
F1.0
tp696
sS'diffuse'
p697
(F1.0
F1.0
F1.0
tp698
sS'ambient'
p699
(F0.0
F0.0
F0.0
tp700
ssS'nLights'
p701
I1
ssS'COLOUR'
p702
(lp703
(lp704
(lp705
g87
a(lp706
F1.0
aF1.0
aF1.0
aF1.0
aaa(lp707
S'ice blue'
p708
a(lp709
F0.61
aF0.69
aF1.0
aF1.0
aaa(lp710
S'gold'
p711
a(lp712
F0.7
aF0.69
aF0.24
aF1.0
aaa(lp713
S'coral'
p714
a(lp715
F1.0
aF0.5
aF0.31
aF1.0
aaa(lp716
S'grey'
p717
a(lp718
F0.5
aF0.5
aF0.5
aF1.0
aaa(lp719
S'pink'
p720
a(lp721
F1.0
aF0.57
aF1.0
aF1.0
aaa(lp722
S'sea green'
p723
a(lp724
F0.5
aF0.73
aF0.71
aF1.0
aaa(lp725
S'pale brown'
p726
a(lp727
F0.66
aF0.49
aF0.37
aF1.0
aaa(lp728
S'lilac'
p729
a(lp730
F0.68
aF0.53
aF0.73
aF1.0
aaa(lp731
S'lemon'
p732
a(lp733
F1.0
aF1.0
aF0.5
aF1.0
aaa(lp734
S'lawn green'
p735
a(lp736
F0.27
aF0.61
aF0.31
aF1.0
aaa(lp737
S'pale crimson'
p738
a(lp739
F0.82
aF0.24
aF0.24
aF1.0
aaa(lp740
S'light blue'
p741
a(lp742
F0.25
aF0.6
aF0.88
aF1.0
aaa(lp743
S'tan'
p744
a(lp745
F0.47
aF0.0
aF0.0
aF1.0
aaa(lp746
S'light green'
p747
a(lp748
F0.6
aF1.0
aF0.6
aF1.0
aaa(lp749
S'yellow'
p750
a(lp751
F1.0
aF1.0
aF0.0
aF1.0
aaa(lp752
g173
a(lp753
F1.0
aF1.0
aF1.0
aF1.0
aaa(lp754
g79
a(lp755
F0.0
aF0.0
aF1.0
aF1.0
aaa(lp756
g77
a(lp757
F1.0
aF0.0
aF0.0
aF1.0
aaa(lp758
g85
a(lp759
F0.0
aF1.0
aF0.0
aF1.0
aaa(lp760
g89
a(lp761
F1.0
aF0.0
aF1.0
aF1.0
aaa(lp762
S'cyan'
p763
a(lp764
F0.0
aF1.0
aF0.88
aF1.0
aaa(lp765
S'purple'
p766
a(lp767
F0.58
aF0.0
aF1.0
aF1.0
aaa(lp768
S'dark purple'
p769
a(lp770
F0.57
aF0.13
aF0.34
aF1.0
aaa(lp771
S'dark cyan'
p772
a(lp773
F0.06
aF0.58
aF0.65
aF1.0
aaa(lp774
S'black'
p775
a(lp776
F0.0
aF0.0
aF0.0
aF1.0
aaa(lp777
S'alice blue'
p778
a(lp779
F0.94
aF0.97
aF1.0
aF1.0
aaa(lp780
S'antique white'
p781
a(lp782
F0.98
aF0.92
aF0.84
aF1.0
aaa(lp783
S'aqua'
p784
a(lp785
F0.0
aF1.0
aF1.0
aF1.0
aaa(lp786
S'aquamarine'
p787
a(lp788
F0.5
aF1.0
aF0.83
aF1.0
aaa(lp789
S'azure'
p790
a(lp791
F0.94
aF1.0
aF1.0
aF1.0
aaa(lp792
S'beige'
p793
a(lp794
F0.96
aF0.96
aF0.86
aF1.0
aaa(lp795
S'bisque'
p796
a(lp797
F1.0
aF0.89
aF0.77
aF1.0
aaa(lp798
S'blanched almond'
p799
a(lp800
F1.0
aF0.92
aF0.8
aF1.0
aaa(lp801
S'blue violet'
p802
a(lp803
F0.54
aF0.17
aF0.89
aF1.0
aaa(lp804
S'brown'
p805
a(lp806
F0.65
aF0.16
aF0.16
aF1.0
aaa(lp807
S'burlywood'
p808
a(lp809
F0.87
aF0.72
aF0.53
aF1.0
aaa(lp810
S'cadet blue'
p811
a(lp812
F0.37
aF0.62
aF0.63
aF1.0
aaa(lp813
S'chartreuse'
p814
a(lp815
F0.5
aF1.0
aF0.0
aF1.0
aaa(lp816
S'chocolate'
p817
a(lp818
F0.82
aF0.41
aF0.12
aF1.0
aaa(lp819
S'cornflower blue'
p820
a(lp821
F0.39
aF0.58
aF0.93
aF1.0
aaa(lp822
S'cornsilk'
p823
a(lp824
F1.0
aF0.97
aF0.86
aF1.0
aaa(lp825
S'crimson'
p826
a(lp827
F0.86
aF0.08
aF0.24
aF1.0
aaa(lp828
S'dark blue'
p829
a(lp830
F0.0
aF0.0
aF0.55
aF1.0
aaa(lp831
S'dark goldenrod'
p832
a(lp833
F0.72
aF0.53
aF0.04
aF1.0
aaa(lp834
S'dark gray'
p835
a(lp836
F0.66
aF0.66
aF0.66
aF1.0
aaa(lp837
S'dark green'
p838
a(lp839
F0.0
aF0.39
aF0.0
aF1.0
aaa(lp840
S'dark grey'
p841
a(lp842
F0.66
aF0.66
aF0.66
aF1.0
aaa(lp843
S'dark khaki'
p844
a(lp845
F0.74
aF0.72
aF0.42
aF1.0
aaa(lp846
S'dark magenta'
p847
a(lp848
F0.55
aF0.0
aF0.55
aF1.0
aaa(lp849
S'dark olive green'
p850
a(lp851
F0.33
aF0.42
aF0.18
aF1.0
aaa(lp852
S'dark orange'
p853
a(lp854
F1.0
aF0.55
aF0.0
aF1.0
aaa(lp855
S'dark orchid'
p856
a(lp857
F0.6
aF0.2
aF0.8
aF1.0
aaa(lp858
S'dark red'
p859
a(lp860
F0.55
aF0.0
aF0.0
aF1.0
aaa(lp861
S'dark salmon'
p862
a(lp863
F0.91
aF0.59
aF0.48
aF1.0
aaa(lp864
S'dark sea green'
p865
a(lp866
F0.56
aF0.74
aF0.56
aF1.0
aaa(lp867
S'dark slate blue'
p868
a(lp869
F0.28
aF0.24
aF0.55
aF1.0
aaa(lp870
S'dark slate gray'
p871
a(lp872
F0.18
aF0.31
aF0.31
aF1.0
aaa(lp873
S'dark slate grey'
p874
a(lp875
F0.18
aF0.31
aF0.31
aF1.0
aaa(lp876
S'dark turquoise'
p877
a(lp878
F0.0
aF0.81
aF0.82
aF1.0
aaa(lp879
S'dark violet'
p880
a(lp881
F0.58
aF0.0
aF0.83
aF1.0
aaa(lp882
S'deep pink'
p883
a(lp884
F1.0
aF0.08
aF0.58
aF1.0
aaa(lp885
S'deep sky blue'
p886
a(lp887
F0.0
aF0.75
aF1.0
aF1.0
aaa(lp888
S'dim gray'
p889
a(lp890
F0.41
aF0.41
aF0.41
aF1.0
aaa(lp891
S'dim grey'
p892
a(lp893
F0.41
aF0.41
aF0.41
aF1.0
aaa(lp894
S'dodger blue'
p895
a(lp896
F0.12
aF0.56
aF1.0
aF1.0
aaa(lp897
S'firebrick'
p898
a(lp899
F0.7
aF0.13
aF0.13
aF1.0
aaa(lp900
S'floral white'
p901
a(lp902
F1.0
aF0.98
aF0.94
aF1.0
aaa(lp903
S'forest green'
p904
a(lp905
F0.13
aF0.55
aF0.13
aF1.0
aaa(lp906
S'fuchsia'
p907
a(lp908
F1.0
aF0.0
aF1.0
aF1.0
aaa(lp909
S'gainsboro'
p910
a(lp911
F0.86
aF0.86
aF0.86
aF1.0
aaa(lp912
S'ghost white'
p913
a(lp914
F0.97
aF0.97
aF1.0
aF1.0
aaa(lp915
S'goldenrod'
p916
a(lp917
F0.85
aF0.65
aF0.13
aF1.0
aaa(lp918
S'gray'
p919
a(lp920
F0.75
aF0.75
aF0.75
aF1.0
aaa(lp921
S'green yellow'
p922
a(lp923
F0.68
aF1.0
aF0.18
aF1.0
aaa(lp924
S'honeydew'
p925
a(lp926
F0.94
aF1.0
aF0.94
aF1.0
aaa(lp927
S'hot pink'
p928
a(lp929
F1.0
aF0.41
aF0.71
aF1.0
aaa(lp930
S'indian red'
p931
a(lp932
F0.8
aF0.36
aF0.36
aF1.0
aaa(lp933
S'indigo'
p934
a(lp935
F0.29
aF0.0
aF0.51
aF1.0
aaa(lp936
S'ivory'
p937
a(lp938
F1.0
aF1.0
aF0.94
aF1.0
aaa(lp939
S'khaki'
p940
a(lp941
F0.94
aF0.9
aF0.55
aF1.0
aaa(lp942
S'lavender blush'
p943
a(lp944
F1.0
aF0.94
aF0.96
aF1.0
aaa(lp945
S'lavender'
p946
a(lp947
F0.9
aF0.9
aF0.98
aF1.0
aaa(lp948
S'lemon chiffon'
p949
a(lp950
F1.0
aF0.98
aF0.8
aF1.0
aaa(lp951
S'light coral'
p952
a(lp953
F0.94
aF0.5
aF0.5
aF1.0
aaa(lp954
S'light cyan'
p955
a(lp956
F0.88
aF1.0
aF1.0
aF1.0
aaa(lp957
S'light goldenrod yellow'
p958
a(lp959
F0.98
aF0.98
aF0.82
aF1.0
aaa(lp960
S'light goldenrod'
p961
a(lp962
F0.93
aF0.87
aF0.51
aF1.0
aaa(lp963
S'light gray'
p964
a(lp965
F0.83
aF0.83
aF0.83
aF1.0
aaa(lp966
S'light grey'
p967
a(lp968
F0.83
aF0.83
aF0.83
aF1.0
aaa(lp969
S'light pink'
p970
a(lp971
F1.0
aF0.71
aF0.76
aF1.0
aaa(lp972
S'light salmon'
p973
a(lp974
F1.0
aF0.63
aF0.48
aF1.0
aaa(lp975
S'light sea green'
p976
a(lp977
F0.13
aF0.7
aF0.67
aF1.0
aaa(lp978
S'light sky blue'
p979
a(lp980
F0.53
aF0.81
aF0.98
aF1.0
aaa(lp981
S'light slate blue'
p982
a(lp983
F0.52
aF0.44
aF1.0
aF1.0
aaa(lp984
S'light slate gray'
p985
a(lp986
F0.47
aF0.53
aF0.6
aF1.0
aaa(lp987
S'light slate grey'
p988
a(lp989
F0.47
aF0.53
aF0.6
aF1.0
aaa(lp990
S'light steel blue'
p991
a(lp992
F0.69
aF0.77
aF0.87
aF1.0
aaa(lp993
S'light yellow'
p994
a(lp995
F1.0
aF1.0
aF0.88
aF1.0
aaa(lp996
S'lime green'
p997
a(lp998
F0.2
aF0.8
aF0.2
aF1.0
aaa(lp999
S'lime'
p1000
a(lp1001
F0.0
aF1.0
aF0.0
aF1.0
aaa(lp1002
S'linen'
p1003
a(lp1004
F0.98
aF0.94
aF0.9
aF1.0
aaa(lp1005
S'maroon'
p1006
a(lp1007
F0.69
aF0.19
aF0.38
aF1.0
aaa(lp1008
S'medium aquamarine'
p1009
a(lp1010
F0.4
aF0.8
aF0.67
aF1.0
aaa(lp1011
S'medium blue'
p1012
a(lp1013
F0.0
aF0.0
aF0.8
aF1.0
aaa(lp1014
S'medium orchid'
p1015
a(lp1016
F0.73
aF0.33
aF0.83
aF1.0
aaa(lp1017
S'medium purple'
p1018
a(lp1019
F0.58
aF0.44
aF0.86
aF1.0
aaa(lp1020
S'medium sea green'
p1021
a(lp1022
F0.24
aF0.7
aF0.44
aF1.0
aaa(lp1023
S'medium slate blue'
p1024
a(lp1025
F0.48
aF0.41
aF0.93
aF1.0
aaa(lp1026
S'medium spring green'
p1027
a(lp1028
F0.0
aF0.98
aF0.6
aF1.0
aaa(lp1029
S'medium turquoise'
p1030
a(lp1031
F0.28
aF0.82
aF0.8
aF1.0
aaa(lp1032
S'medium violet red'
p1033
a(lp1034
F0.78
aF0.08
aF0.52
aF1.0
aaa(lp1035
S'midnight blue'
p1036
a(lp1037
F0.1
aF0.1
aF0.44
aF1.0
aaa(lp1038
S'mint cream'
p1039
a(lp1040
F0.96
aF1.0
aF0.98
aF1.0
aaa(lp1041
S'misty rose'
p1042
a(lp1043
F1.0
aF0.89
aF0.88
aF1.0
aaa(lp1044
S'moccasin'
p1045
a(lp1046
F1.0
aF0.89
aF0.71
aF1.0
aaa(lp1047
S'navajo white'
p1048
a(lp1049
F1.0
aF0.87
aF0.68
aF1.0
aaa(lp1050
S'navy blue'
p1051
a(lp1052
F0.0
aF0.0
aF0.5
aF1.0
aaa(lp1053
S'navy'
p1054
a(lp1055
F0.0
aF0.0
aF0.5
aF1.0
aaa(lp1056
S'old lace'
p1057
a(lp1058
F0.99
aF0.96
aF0.9
aF1.0
aaa(lp1059
S'olive drab'
p1060
a(lp1061
F0.42
aF0.56
aF0.14
aF1.0
aaa(lp1062
S'olive'
p1063
a(lp1064
F0.5
aF0.5
aF0.0
aF1.0
aaa(lp1065
S'orange red'
p1066
a(lp1067
F1.0
aF0.27
aF0.0
aF1.0
aaa(lp1068
S'orange'
p1069
a(lp1070
F1.0
aF0.65
aF0.0
aF1.0
aaa(lp1071
S'orchid'
p1072
a(lp1073
F0.85
aF0.44
aF0.84
aF1.0
aaa(lp1074
S'pale goldenrod'
p1075
a(lp1076
F0.93
aF0.91
aF0.67
aF1.0
aaa(lp1077
S'pale green'
p1078
a(lp1079
F0.6
aF0.98
aF0.6
aF1.0
aaa(lp1080
S'pale turquoise'
p1081
a(lp1082
F0.69
aF0.93
aF0.93
aF1.0
aaa(lp1083
S'pale violet red'
p1084
a(lp1085
F0.86
aF0.44
aF0.58
aF1.0
aaa(lp1086
S'papaya whip'
p1087
a(lp1088
F1.0
aF0.94
aF0.84
aF1.0
aaa(lp1089
S'peach puff'
p1090
a(lp1091
F1.0
aF0.85
aF0.73
aF1.0
aaa(lp1092
S'peru'
p1093
a(lp1094
F0.8
aF0.52
aF0.25
aF1.0
aaa(lp1095
S'plum'
p1096
a(lp1097
F0.87
aF0.63
aF0.87
aF1.0
aaa(lp1098
S'powder blue'
p1099
a(lp1100
F0.69
aF0.88
aF0.9
aF1.0
aaa(lp1101
S'rebecca purple'
p1102
a(lp1103
F0.4
aF0.2
aF0.6
aF1.0
aaa(lp1104
S'rosy brown'
p1105
a(lp1106
F0.74
aF0.56
aF0.56
aF1.0
aaa(lp1107
S'royal blue'
p1108
a(lp1109
F0.25
aF0.41
aF0.88
aF1.0
aaa(lp1110
S'saddle brown'
p1111
a(lp1112
F0.55
aF0.27
aF0.07
aF1.0
aaa(lp1113
S'salmon'
p1114
a(lp1115
F0.98
aF0.5
aF0.45
aF1.0
aaa(lp1116
S'sandy brown'
p1117
a(lp1118
F0.96
aF0.64
aF0.38
aF1.0
aaa(lp1119
S'seashell'
p1120
a(lp1121
F1.0
aF0.96
aF0.93
aF1.0
aaa(lp1122
S'sienna'
p1123
a(lp1124
F0.63
aF0.32
aF0.18
aF1.0
aaa(lp1125
S'silver'
p1126
a(lp1127
F0.75
aF0.75
aF0.75
aF1.0
aaa(lp1128
S'sky blue'
p1129
a(lp1130
F0.53
aF0.81
aF0.92
aF1.0
aaa(lp1131
S'slate blue'
p1132
a(lp1133
F0.42
aF0.35
aF0.8
aF1.0
aaa(lp1134
S'slate gray'
p1135
a(lp1136
F0.44
aF0.5
aF0.56
aF1.0
aaa(lp1137
S'slate grey'
p1138
a(lp1139
F0.44
aF0.5
aF0.56
aF1.0
aaa(lp1140
S'snow'
p1141
a(lp1142
F1.0
aF0.98
aF0.98
aF1.0
aaa(lp1143
S'spring green'
p1144
a(lp1145
F0.0
aF1.0
aF0.5
aF1.0
aaa(lp1146
S'steel blue'
p1147
a(lp1148
F0.27
aF0.51
aF0.71
aF1.0
aaa(lp1149
S'teal'
p1150
a(lp1151
F0.0
aF0.5
aF0.5
aF1.0
aaa(lp1152
S'thistle'
p1153
a(lp1154
F0.85
aF0.75
aF0.85
aF1.0
aaa(lp1155
S'tomato'
p1156
a(lp1157
F1.0
aF0.39
aF0.28
aF1.0
aaa(lp1158
S'turquoise'
p1159
a(lp1160
F0.25
aF0.88
aF0.82
aF1.0
aaa(lp1161
S'violet red'
p1162
a(lp1163
F0.82
aF0.13
aF0.56
aF1.0
aaa(lp1164
S'violet'
p1165
a(lp1166
F0.93
aF0.51
aF0.93
aF1.0
aaa(lp1167
S'web gray'
p1168
a(lp1169
F0.5
aF0.5
aF0.5
aF1.0
aaa(lp1170
S'web green'
p1171
a(lp1172
F0.0
aF0.5
aF0.0
aF1.0
aaa(lp1173
S'web grey'
p1174
a(lp1175
F0.5
aF0.5
aF0.5
aF1.0
aaa(lp1176
S'web maroon'
p1177
a(lp1178
F0.5
aF0.0
aF0.0
aF1.0
aaa(lp1179
S'web purple'
p1180
a(lp1181
F0.5
aF0.0
aF0.5
aF1.0
aaa(lp1182
S'wheat'
p1183
a(lp1184
F0.96
aF0.87
aF0.7
aF1.0
aaa(lp1185
S'white smoke'
p1186
a(lp1187
F0.96
aF0.96
aF0.96
aF1.0
aaa(lp1188
S'x11 gray'
p1189
a(lp1190
F0.75
aF0.75
aF0.75
aF1.0
aaa(lp1191
S'x11 green'
p1192
a(lp1193
F0.0
aF1.0
aF0.0
aF1.0
aaa(lp1194
S'x11 grey'
p1195
a(lp1196
F0.75
aF0.75
aF0.75
aF1.0
aaa(lp1197
S'x11 maroon'
p1198
a(lp1199
F0.69
aF0.19
aF0.38
aF1.0
aaa(lp1200
S'x11 purple'
p1201
a(lp1202
F0.63
aF0.13
aF0.94
aF1.0
aaa(lp1203
S'yellow green'
p1204
a(lp1205
F0.6
aF0.8
aF0.2
aF1.0
aaaaI169
asS'fonts'
p1206
(dp1207
S'atom_label'
p1208
(dp1209
S'size'
p1210
I13
sS'underline'
p1211
I0
sS'weight'
p1212
S'normal'
p1213
sS'family'
p1214
csip
_unpickle_type
p1215
(S'PyQt4.QtCore'
p1216
S'QString'
p1217
(VMS Shell Dlg 2
p1218
tp1219
tp1220
Rp1221
sS'slant'
p1222
S'r'
p1223
ssS'applicationFont'
p1224
(dp1225
g1210
I8
sg1211
I0
sg1212
g1213
sg1214
g1215
(g1216
S'QString'
p1226
(VMS Shell Dlg 2
p1227
tp1228
tp1229
Rp1230
sg1222
g1223
ssS'annotation'
p1231
(dp1232
g1210
I18
sg1211
I0
sg1212
g1213
sg1214
g1215
(g1216
S'QString'
p1233
(VMS Shell Dlg 2
p1234
tp1235
tp1236
Rp1237
sg1222
g1223
ssS'pick_atom_label'
p1238
(dp1239
g1210
I13
sg1211
I0
sg1212
g1213
sg1214
g1215
(g1216
S'QString'
p1240
(VMS Shell Dlg 2
p1241
tp1242
tp1243
Rp1244
sg1222
g1223
ssS'legend'
p1245
(dp1246
g1210
I32
sg1211
I0
sg1212
g1213
sg1214
g1215
(g1216
S'QString'
p1247
(VMS Shell Dlg 2
p1248
tp1249
tp1250
Rp1251
sg1222
g1223
sssS'pick_labels'
p1252
(dp1253
S'max_labels'
p1254
I20
sg128
I0
sg132
I6
sg133
(lp1255
I0
aI0
aI0
aI1
aI1
aI1
aI1
aI0
aI0
aI0
aI0
aI0
aI0
aI0
aI0
aI0
assS'file_viewer'
p1256
(dp1257
S'supported_plugins'
p1258
(dp1259
ssS'Data_list'
p1260
(lp1261
g684
ag1
asS'version'
p1262
g21
sS'ModelInfo'
p1263
(dp1264
S'user_file'
p1265
(dp1266
S'generic'
p1267
(lp1268
S'dotCCP4MG'
p1269
aS'generic.ccp4mg'
p1270
aS'C:\\Users\\eliez\\CCP4MG2\\generic.ccp4mg'
p1271
asssS'plugins'
p1272
(dp1273
S'Render'
p1274
(dp1275
S'scalebartext'
p1276
I01
sS'stereo'
p1277
I00
sS'save_status'
p1278
I01
sS'dpi_spin'
p1279
I300
sS'scaleFonts'
p1280
I1
sS'stereo_sep'
p1281
F0.1
sS'height_dpi_inches'
p1282
F5.79
sS'height'
p1283
I578
sS'stereo_angle'
p1284
F6.0
sS'width'
p1285
I600
sS'magnification'
p1286
F1.0
sS'keepAspect'
p1287
I0
sS'size_mode'
p1288
S'defined'
p1289
sS'scaleLines'
p1290
I1
sS'stereo_mode'
p1291
S'shear'
p1292
sS'scaleImages'
p1293
I1
sS'preview'
p1294
I01
sS'transparent'
p1295
I01
sS'renderParams'
p1296
(dp1297
S'ambocc_samples'
p1298
I64
sS'save_rib'
p1299
I00
sS'ambocc_scale'
p1300
F1.0
sS'ambocc'
p1301
I00
sS'smoothRibbons'
p1302
I00
sS'raytrace'
p1303
I01
ssS'width_dpi_inches'
p1304
F6.0
ssS'SequenceViewer'
p1305
(dp1306
S'alignment'
p1307
g11
ssS'GeometricObjects'
p1308
(dp1309
S'objects'
p1310
(lp1311
ssS'ShadersPlugin'
p1312
(dp1313
S'use_shadows'
p1314
I0
sS'use_shaders'
p1315
I0
sS'use_outline'
p1316
I0
sS'use_ambocc'
p1317
I0
ssS'GeometryPlugin'
p1318
(dp1319
S'atoms'
p1320
(lp1321
(lp1322
asssS'mouse_bindings'
p1323
(dp1324
S'translate-z'
p1325
(dp1326
S'shift'
p1327
I0
sS'alt'
p1328
I0
sS'mouse_button'
p1329
S'middle'
p1330
sS'key'
p1331
S'z'
p1332
sS'ctrl'
p1333
I0
ssS'object-rotate-xy'
p1334
(dp1335
g1327
I0
sg1328
I0
sg1329
S'left'
p1336
sg1331
S'x'
p1337
sg1333
I0
ssS'rotate-xy'
p1338
(dp1339
g1327
I0
sg1328
I0
sg1329
g1336
sg1331
S' '
p1340
sg1333
I0
ssS'object-translate-z'
p1341
(dp1342
g1327
I1
sg1328
I0
sg1329
g1330
sg1331
g1337
sg1333
I0
ssS'zoom'
p1343
(dp1344
g1327
I0
sg1328
I0
sg1329
g1330
sg1331
g1340
sg1333
I0
ssS'translate-xy'
p1345
(dp1346
g1327
I1
sg1328
I0
sg1329
g1330
sg1331
g1340
sg1333
I0
ssS'clip-width'
p1347
(dp1348
g1327
I0
sg1328
I0
sg1329
g1330
sg1331
S'c'
p1349
sg1333
I0
ssS'rotate-z'
p1350
(dp1351
g1327
I1
sg1328
I0
sg1329
g1336
sg1331
g1340
sg1333
I0
ssS'object-rotate-z'
p1352
(dp1353
g1327
I1
sg1328
I0
sg1329
g1336
sg1331
g1337
sg1333
I0
ssS'object-translate-xy'
p1354
(dp1355
g1327
I0
sg1328
I0
sg1329
g1330
sg1331
g1337
sg1333
I0
sssS'windowGeometry'
p1356
g1215
(g1216
S'QByteArray'
p1357
(S'\x01\xd9\xd0\xcb\x00\x01\x00\x00\xff\xff\xff\xf7\xff\xff\xff\xf7\x00\x00\x07\x88\x00\x00\x04\x04\x00\x00\x00=\x00\x00\x00?\x00\x00\x06i\x00\x00\x03\xc0\x00\x00\x00\x00\x02\x00'
p1358
tp1359
tp1360
Rp1361
sg684
(idataobj
DataObjShadow
p1362
(dp1363
g4
g684
sg5
S'MolData'
p1364
sg7
(lp1365
S'ampFinal02_model74MolDisp1'
p1366
aS'ampFinal02_model74MolDisp2'
p1367
aS'ampFinal02_model74SurfaceDispobj3'
p1368
asg10
(lp1369
S'FULLPATH'
p1370
ag689
ag689
asg12
(dp1371
g14
I1
sg15
S'367DE40191D44FB3906373A0F1410106'
p1372
sS'mol_colour'
p1373
g708
sS'check_graphs'
p1374
I1
sg5
g1364
sS'show_aromatic_rings'
p1375
I1
sg17
S'model'
p1376
sg10
g1369
sg19
I1
sS'customResCIFFiles'
p1377
(dp1378
sg20
g21
sS'model_symmetry'
p1379
(dp1380
S'symmetry_visible'
p1381
(lp1382
sS'symmetry_colours'
p1383
(lp1384
sS'MolDisp_selection'
p1385
S'all atoms'
p1386
sS'symmetry_MolDisp_objects'
p1387
(lp1388
sS'MolDisp_visible'
p1389
I1
ssS'lastWizardRun'
p1390
S'Ligand_binding_site:Site_and_ribbons_by_PDB_file'
p1391
ssg19
I1
sg22
(lp1392
(idataobj
DispObjShadow
p1393
(dp1394
S'colparams'
p1395
(dp1396
S'interface_MolData_name'
p1397
g11
sS'non_C_atomtype'
p1398
I0
sS'colour_blend'
p1399
(dp1400
g115
(lp1401
(lp1402
g79
ag77
aasS'selection_command'
p1403
(lp1404
S'peptide'
p1405
asS'direction'
p1406
(lp1407
S'anti-clockwise'
p1408
asS'default_colour'
p1409
g173
sS'group'
p1410
S'residue'
p1411
sS'type'
p1412
S'all'
p1413
ssS'one_colour'
p1414
g11
sS'user_scheme'
p1415
(lp1416
S'HidropColor'
p1417
aS'generic'
p1418
asS'stick_colour'
p1419
S'ATOM'
p1420
sS'colour_legend'
p1421
S'<span style="color:;">User colour rules </span>\n</p><p><span style="color:red;">/*/*/(ALA,VAL,PRO,LEU,ILE </span>\n</p><p>'
p1422
sS'interface_selection'
p1423
g11
sS'colour_mode'
p1424
S'rules'
p1425
sS'colour_rules'
p1426
(lp1427
(lp1428
S'blue'
p1429
ag11
aa(lp1430
S'red'
p1431
a(lp1432
NaS'/*/*/(ALA,VAL,PRO,LEU,ILE,MET,PHE,TRP)/*:*'
p1433
aaasS'interface_style'
p1434
S'RESIDUE'
p1435
ssg4
g1366
sg5
S'MolDisp'
p1436
sg19
I1
sS'selparams'
p1437
(dp1438
S'features'
p1439
g11
sS'symid'
p1440
g11
sS'neighb_mol'
p1441
g11
sS'ranges_neighb_invert'
p1442
I0
sS'buried_sel'
p1443
g11
sS'contact_mol'
p1444
g11
sS'property_join'
p1445
S'and'
p1446
sS'neighb_rad'
p1447
S'4.0'
p1448
sS'select'
p1449
S'cid'
p1450
sS'restypes'
p1451
(lp1452
sS'ranges_neighb_cutoff'
p1453
F4.0
sS'ranges_extend'
p1454
I1
sS'nmr_models'
p1455
(lp1456
sS'ranges_neighb_model'
p1457
g11
sS'sites'
p1458
(lp1459
sS'ranges_neighb_qualifier'
p1460
g1413
sS'neighb_excl_solvent'
p1461
I0
sS'buried_mol'
p1462
g11
sS'entities'
p1463
(lp1464
sS'same_as'
p1465
I0
sS'secstr'
p1466
(lp1467
sS'neighb_hb'
p1468
I0
sS'nglycosylation'
p1469
(lp1470
sS'chains'
p1471
(lp1472
sS'property_gt_value'
p1473
(lp1474
sS'alt_locs'
p1475
(lp1476
sS'contact_sel'
p1477
g11
sS'property_gt_op'
p1478
(lp1479
sS'nothydrogen'
p1480
I0
sS'buried_group'
p1481
S'atom'
p1482
sS'property_lt_value'
p1483
(lp1484
sS'as_MolDisp'
p1485
g11
sg113
(lp1486
sS'elementtypes'
p1487
(lp1488
sS'neighb_excl_monomer'
p1489
I0
sS'selection_scheme'
p1490
g11
sS'ranges_qualifier'
p1491
g11
sS'ligands'
p1492
(lp1493
sS'neighb_sel'
p1494
g11
sS'use_all_models'
p1495
I00
sS'neighb_sym'
p1496
I0
sS'user_sel'
p1497
g11
sg1450
g1405
sS'neighb_excl'
p1498
I1
sS'property_lt_op'
p1499
(lp1500
sS'ranges_invert'
p1501
I0
sS'atomtype'
p1502
g11
sS'command'
p1503
g1405
sS'neighb_selobj'
p1504
g11
sS'neighb_group'
p1505
g1411
sS'buried_and_selection'
p1506
g11
sS'property'
p1507
(lp1508
sS'ranges_neighb_selection'
p1509
g11
sS'oglycosylation'
p1510
(lp1511
ssg26
(dp1512
g28
F1.0
sg15
S'CF84DCA3BB5A47D096B6D4FDC9F0AF10'
p1513
sS'doCentralSymmetry'
p1514
I01
sg32
I0
sS'nbiomol'
p1515
I-1
sg19
I1
sS'doSymmetry'
p1516
I01
sg33
g11
sg36
S'ribbon'
p1517
sS'doBiomolecule'
p1518
I00
sS'contact_MolDisp'
p1519
g11
sS'label_params'
p1520
(dp1521
g133
g134
sS'label_user_oneperres'
p1522
I1
sS'label_colour'
p1523
S'complement'
p1524
sg128
I0
sS'label_user_selparams'
p1525
(dp1526
sg130
g131
sg132
I6
sssS'styleparams'
p1527
(dp1528
S'style_mode'
p1529
S'SPLINE'
p1530
sS'inter_dispobj_bond'
p1531
I1
ssba(idataobj
DispObjShadow
p1532
(dp1533
g1395
(dp1534
g1397
g11
sg1398
I0
sg1399
(dp1535
g115
g1401
sg1403
g1404
sg1406
g1407
sg1409
g173
sg1410
g1411
sg1412
g1413
ssg1414
g11
sg1415
(lp1536
S'Edited scheme'
p1537
asg1419
g1420
sg1421
g11
sg1423
g11
sg1424
g1502
sg1426
(lp1538
sg1434
g1435
ssg4
g1367
sg5
g1436
sg19
I0
sg1437
(dp1539
g1439
g11
sg1440
g11
sg1441
g11
sg1442
I0
sg1443
g11
sg1444
g11
sg1445
g1446
sg1447
g1448
sg1449
g1450
sg1451
(lp1540
sg1453
F4.0
sg1454
I1
sg1455
(lp1541
sg1457
g11
sg1458
(lp1542
sg1460
g1413
sg1461
I0
sg1462
g11
sg1463
(lp1543
sg1465
I0
sg1466
(lp1544
sg1468
I0
sg1469
(lp1545
sg1471
(lp1546
sg1473
(lp1547
sg1475
(lp1548
sg1477
g11
sg1478
(lp1549
sg1480
I0
sg1481
g1482
sg1483
(lp1550
sg1485
g11
sg113
(lp1551
sg1487
(lp1552
sg1489
I0
sg1490
g11
sg1491
g11
sg1492
(lp1553
sg1494
g11
sg1495
I00
sg1496
I0
sg1497
g11
sg1450
g1413
sg1498
I1
sg1499
(lp1554
sg1501
I0
sg1502
g11
sg1503
g1413
sg1504
g11
sg1505
g1411
sg1506
g11
sg1507
(lp1555
sg1509
g11
sg1510
(lp1556
ssg26
(dp1557
g28
F1.0
sg15
S'EA6E69BCD9274E10BB592A6DA28C09FB'
p1558
sg1514
I01
sg32
I0
sg1515
I-1
sg19
I0
sg1516
I01
sg33
g11
sg36
S'bonds'
p1559
sg1518
I00
sg1519
g11
sg1520
(dp1560
g133
g134
sg1522
I1
sg1523
g1524
sg128
I0
sg1525
g1526
sg130
g131
sg132
I6
sssg1527
(dp1561
g1529
S'BONDS'
p1562
sg1531
I1
ssba(idataobj
DispObjShadow
p1563
(dp1564
g1395
(dp1565
g1397
g11
sg1398
I0
sg1399
(dp1566
g115
g1401
sg1403
g1404
sg1406
g1407
sg1409
g173
sg1410
g1411
sg1412
g1413
ssg1414
g11
sg1415
g1536
sg1419
g1420
sg1421
g11
sg1423
g11
sg1424
S'electrostatic'
p1567
sg1426
g1538
sg1434
g1435
ssg4
g1368
sg5
S'SurfaceDispobj'
p1568
sg19
I0
sg1437
(dp1569
g1439
g11
sg1440
g11
sg1441
g11
sg1442
I0
sg1443
g11
sg1444
g11
sg1445
g1446
sg1447
g1448
sg1449
g1405
sg1451
(lp1570
sg1453
F4.0
sg1454
I1
sg1455
(lp1571
sg1457
g11
sg1458
(lp1572
sg1460
g1413
sg1461
I0
sg1462
g11
sg1463
(lp1573
sg1465
I0
sg1466
(lp1574
sg1468
I0
sg1469
(lp1575
sg1471
(lp1576
sg1473
(lp1577
sg1475
(lp1578
sg1477
g11
sg1478
(lp1579
sg1480
I0
sg1481
g1482
sg1483
(lp1580
sg1485
g11
sg113
(lp1581
sg1487
(lp1582
sg1489
I0
sg1490
g11
sg1491
g11
sg1492
(lp1583
sg1494
g11
sg1495
I00
sg1496
I0
sg1497
g11
sg1450
g11
sg1498
I1
sg1499
(lp1584
sg1501
I0
sg1502
g11
sg1503
g1405
sg1504
g11
sg1505
g1411
sg1506
g11
sg1507
(lp1585
sg1509
g11
sg1510
(lp1586
ssg26
(dp1587
g28
F1.0
sS'surface_type'
p1588
S'normal'
p1589
sg15
S'8F65F305C4D5488AB31F14B00445A53A'
p1590
sg32
I0
sg19
I0
sg94
S'solid'
p1591
sg33
g11
sg36
S'whole_surface'
p1592
ssg1527
(dp1593
g1439
g11
sg1440
g11
sg1441
g11
sg1442
I0
sg1443
g11
sg1444
g11
sg1445
g1446
sg1447
g1448
sg1449
g1405
sg1451
(lp1594
sg1453
F4.0
sg1454
I1
sg1455
(lp1595
sg1457
g11
sg1458
(lp1596
sg1460
g1413
sg1461
I0
sg1462
g11
sg1463
(lp1597
sg1465
g1368
sg1466
(lp1598
sg1468
I0
sg1469
(lp1599
sg1471
(lp1600
sg1473
(lp1601
sg1475
(lp1602
sg1477
g11
sg1478
(lp1603
sg1480
I0
sg1481
g1482
sg1483
(lp1604
sg1485
g11
sg113
(lp1605
sg1487
(lp1606
sg1489
I0
sg1490
g11
sg1491
g11
sg1492
(lp1607
sg1494
g11
sg1495
I00
sg1496
I0
sg1497
g11
sg1450
g11
sg1498
I1
sg1499
(lp1608
sg1501
I0
sg1502
g11
sg1503
g1405
sg1504
g11
sg1505
g1411
sg1506
g11
sg1507
(lp1609
sg1509
g11
sg1510
(lp1610
ssbasbs.