(dp0
S'Legends&Images'
p1
(idataobj
DataObjShadow
p2
(dp3
S'name'
p4
g1
sS'object_type'
p5
S'GL2dScreen'
p6
sS'objnames'
p7
(lp8
S'Legend'
p9
aS'Legends&ImagesLegend2'
p10
asS'filename'
p11
S''
p12
sS'dataparams'
p13
(dp14
S'expanded'
p15
I1
sS'uuid'
p16
S'8DEB8A53D8A44A6AB4EE71310803B5D5'
p17
sg5
g6
sS'module'
p18
g9
sg11
(lp19
g12
ag12
ag12
asS'visible'
p20
I1
sS'ccp4mg_creator_version'
p21
S'2.10.11'
p22
ssg20
I1
sS'objinsts'
p23
(lp24
(idataobj
DispObjShadow
p25
(dp26
g20
I1
sg5
g9
sS'params'
p27
(dp28
S'opacity'
p29
F1.0
sS'selection'
p30
S'<!DOCTYPE HTML PUBLIC "-//W3C//DTD HTML 4.0//EN" "http://www.w3.org/TR/REC-html40/strict.dtd">\n<html><head><meta name="qrichtext" content="1" /><style type="text/css">\np, li { white-space: pre-wrap; }\n</style></head><body style=" font-family:\'MS Shell Dlg 2\'; font-size:8pt; font-weight:400; font-style:normal;">\n<p style=" margin-top:0px; margin-bottom:0px; margin-left:0px; margin-right:0px; -qt-block-indent:0; text-indent:0px;"><span style=" font-size:14pt; font-weight:600;">\tNPEP160435:</span></p>\n<p style=" margin-top:0px; margin-bottom:0px; margin-left:0px; margin-right:0px; -qt-block-indent:0; text-indent:0px;"><span style=" font-size:14pt; font-weight:600;">RNSIKPKVKKKWLKLTAKGLLLK</span></p>\n<p style="-qt-paragraph-type:empty; margin-top:0px; margin-bottom:0px; margin-left:0px; margin-right:0px; -qt-block-indent:0; text-indent:0px; font-size:14pt; font-weight:600;"><br /></p></body></html>'
p31
sg16
S'B79A6BB499B243ECB87BD00AF3BE0A12'
p32
sS'legend_visible'
p33
I0
sg20
I1
sS'customSelectionName'
p34
g12
sS'position'
p35
(lp36
F0.3
aF0.01
asS'display_class'
p37
g12
ssg4
g9
sba(idataobj
DispObjShadow
p38
(dp39
g20
I0
sg5
g9
sg27
(dp40
g29
F1.0
sg30
S'<p>NPEP160435\tRNSIKPKVKKKWLKLTAKGLLLK</p>'
p41
sg16
S'B93411EA094344E7BD3125B1AF6539C5'
p42
sg33
I0
sg20
I0
sg34
g12
sg35
(lp43
F0.01
aF0.01
asg37
g12
ssg4
g10
sbasbsS'params2'
p44
(dp45
S'socket_preferences'
p46
(dp47
S'local_only'
p48
I1
sS'open_socket'
p49
I0
ssS'save_session_options'
p50
(dp51
S'backup_data_files'
p52
I0
sS'restore_data'
p53
I1
sS'interpret_old_selections'
p54
I1
sS'save_projects'
p55
I0
sS'ask_restore_data'
p56
I0
ssS'download_preferences'
p57
(dp58
S'PDBJapan_Search'
p59
S'pdbjs3.protein.osaka-u.ac.jp/xPSSS/index.html'
p60
sS'RCSB_Download_CIF'
p61
S'http://www.rcsb.org/pdb/files/PDBID.cif'
p62
sS'EBI_Download_CIF'
p63
S'https://www.ebi.ac.uk/pdbe/entry-files/download/PDBID.cif'
p64
sS'http_proxy'
p65
g12
sS'PDBJapan_Download_PDB'
p66
S'ftp://www.pdbj.org/pdb_nc/pdbPDBID.ent'
p67
sS'preferred_site'
p68
S'EBI'
p69
sS'EBI_Download_PDB'
p70
S'https://www.ebi.ac.uk/pdbe/entry-files/download/pdbPDBID.ent'
p71
sS'RCSB_Search'
p72
S'www.rcsb.org/pdb'
p73
sS'PDBJapan_Download_CIF'
p74
S'ftp://ftp.pdbj.org/mmcif/PDBID.cif.gz'
p75
sS'http_user'
p76
g12
sS'RCSB_Download_PDB'
p77
S'http://www.rcsb.org/pdb/files/PDBID.pdb'
p78
sS'http_password'
p79
g12
sS'EBI_Search'
p80
S'www.ebi.ac.uk/msd-srv/msdlite/index.html'
p81
ssS'HBond_param'
p82
(dp83
S'min_D_H_A'
p84
F90.0
sS'max_H_A'
p85
F2.5
sS'min_D_A_AA'
p86
F90.0
sS'max_D_A'
p87
F3.1
sS'max_D_A_S'
p88
F3.9
sS'min_H_A_AA'
p89
F90.0
sS'min_DD_D_A'
p90
F90.0
sS'min_D_A'
p91
F2.0
ssS'MapDispParamsManager'
p92
(dp93
S'inside_shiny'
p94
I1
sS'line_width'
p95
F1.0
sS'surface_style'
p96
S'surface_style_chickenwire'
p97
sS'contour_sigma_max'
p98
F5.0
sS'cylinder_width'
p99
F0.03
sS'dot_size'
p100
F1.0
sS'double_side'
p101
I0
sS'ncontours'
p102
I1
sS'inside_colour'
p103
S'default'
p104
sS'other_colour'
p105
S'magenta'
p106
sS'diff_pos_colour'
p107
S'green'
p108
sS'radius'
p109
F10.0
sS'dot_spacing'
p110
F0.3
sS'diff_neg_colour'
p111
S'red'
p112
sS'sampling_rate'
p113
F0.75
sS'contour_scale'
p114
S'absolute'
p115
sS'first_colour'
p116
S'blue'
p117
ssS'Surface_electro'
p118
(dp119
S'ranges'
p120
(lp121
F0.0
aF-0.5
aF0.0
aF0.5
aF0.0
asS'colours'
p122
(lp123
S'red'
p124
aS'red'
p125
aS'white'
p126
aS'blue'
p127
aS'blue'
p128
asS'colour_wheel_direction'
p129
S'clockwise'
p130
sS'interpolate_mode'
p131
S'HSV'
p132
ssS'atom_label_params'
p133
(dp134
S'truncate_mol_name'
p135
I0
sS'show_number_label'
p136
I0
sS'label_select'
p137
S'label_no'
p138
sS'truncate_mol_name_length'
p139
I6
sS'label_style'
p140
(lp141
I0
aI0
aI0
aI1
aI1
aI1
aI1
aI0
aI0
aI0
aI0
aI0
aI0
aI0
aI0
aI0
assS'SecStr_param'
p142
(dp143
S'min_helix_length'
p144
I4
sS'flagBulge'
p145
I1
ssS'geometry_preferences'
p146
(dp147
S'style'
p148
S'Line'
p149
sS'single_click_label'
p150
I1
sS'angles_dp'
p151
I1
sS'width'
p152
I4
sS'bonds_dp'
p153
I2
sS'show_angles'
p154
I0
sS'show_torsions'
p155
I0
sS'line_colour'
p156
S'red'
p157
sS'text_colour'
p158
S'default'
p159
ssS'render_quality'
p160
(dp161
S'use_vbo'
p162
I1
sS'use_ambocc'
p163
I0
sS'smooth_line'
p164
I1
sS'use_outline'
p165
I0
sS'force_use_va'
p166
I1
sS'use_shadows'
p167
I0
sS'use_shaders'
p168
I0
sS'solid_quality'
p169
I1
ssS'centre_mode'
p170
(dp171
S'centre_method'
p172
I0
ssS'screenshot_preferences'
p173
(dp174
S'offscreen'
p175
I1
sS'antialias'
p176
I1
ssS'miscell_prefs'
p177
(dp178
S'text_label_background'
p179
I0
sS'flip_text'
p180
I0
sS'fog_text'
p181
I0
sS'depth_text'
p182
I0
sS'text_label_background_colour'
p183
S'white'
p184
ssS'Surface_map'
p185
(dp186
g120
(lp187
F0.0
aF-0.5
aF0.0
aF0.5
aF0.0
asg122
(lp188
S'red'
p189
aS'red'
p190
aS'white'
p191
aS'blue'
p192
aS'blue'
p193
asg129
g130
sg131
g132
ssS'ambient_occlusion_prefs'
p194
(dp195
S'ambocc_znear'
p196
F100.0
sS'ambocc_bias'
p197
F0.3
sS'ambocc_radius'
p198
F15.0
sS'ambocc_scale'
p199
F1.0
sS'ambocc_zfar'
p200
F150.0
ssS'Animation_param'
p201
(dp202
S'delay'
p203
F0.1
sS'flash_delay'
p204
F0.5
sS'update_properties'
p205
I1
ssS'model_drawing_style'
p206
(dp207
S'fat_bond_width'
p208
I4
sS'bond_width'
p209
I2
sS'thin_bond_width'
p210
I1
sS'glycoblock_interaction_dash_length'
p211
F0.36
sS'arrow_length'
p212
F2.2
sS'anisou_scale_byvdw'
p213
I0
sS'grey_ribbon_edge'
p214
I0
sS'worm_width'
p215
F0.2
sS'glycoblock_interaction_line_width'
p216
I2
sS'loop_frac'
p217
I1
sS'dashed_bond_length'
p218
F0.3
sS'dashed_bonds'
p219
I0
sS'glycoblock_interaction_cylinder_radius'
p220
F0.1
sS'glycoblock_draw_cov_protein_interactions'
p221
I1
sS'ballstick_stick'
p222
F0.1
sS'glycoblock_interaction_style'
p223
S'Dashed cylinder'
p224
sS'helix_style'
p225
I0
sS'helix_tube_diameter'
p226
F1.5
sS'sphere_radii_scale'
p227
F1.0
sS'base_block_thickness'
p228
F0.2
sS'anisou_style'
p229
S'solidaxes'
p230
sS'ball_radii_scale'
p231
F0.2
sS'deloc_ring'
p232
I0
sS'anisou_scale'
p233
F1.0
sS'flatten_loop'
p234
I0
sS'glycoblock_scale'
p235
F1.3
sS'glycoblock_interaction_colour'
p236
S'black'
p237
sS'flatten_beta'
p238
I1
sS'ribbon_width'
p239
F2.5
sS'glycoblock_stick_colour'
p240
g237
sS'nucleic_stick_width'
p241
F0.4
sS'glycoblock_label_protein_interactions'
p242
I0
sS'show_multiple_bonds'
p243
I0
sS'arrow_width'
p244
F2.2
sS'glycoblock_draw_protein_interactions'
p245
I0
sS'trace_cutoff'
p246
F4.8
sS'alpha_helix_width'
p247
F1.5
sS'pyramid_size'
p248
F0.1
sS'spline_beta_flat'
p249
I1
sS'cylinder_width'
p250
F0.2
sS'glycoblock_thickness'
p251
F0.35
sS'two_colour_ribbon'
p252
I0
sS'ribbon_style'
p253
I0
ssS'hydrophobicity_preferences'
p254
(dp255
sS'Contacts_param'
p256
(dp257
S'test_VDW_radius'
p258
I0
sS'VDW_fraction_min'
p259
F0.0
sS'simple_min_cutoff'
p260
F0.0
sS'label_VDW_radius'
p261
I0
sS'exclude_hbondable'
p262
I0
sS'simple_max_cutoff'
p263
F4.0
sS'VDW_fraction_max'
p264
F0.9
sS'test_metal_coord_distance'
p265
I1
ssS'HBond_drawing_style'
p266
(dp267
g95
I2
sS'contacts_line_style'
p268
S'lines'
p269
sS'label_mode'
p270
I0
sS'contacts_label_mode'
p271
I1
sS'contacts_line_width'
p272
I2
sS'line_style'
p273
g269
ssS'stereo_prefs'
p274
(dp275
S'stereo_mode'
p276
I1
sS'shear_sep'
p277
F0.1
sS'rot_sep'
p278
F6.0
ssS'restype'
p279
(dp280
g120
(lp281
S'*'
p282
aS'PHE'
p283
aS'TRP'
p284
aS'TYR'
p285
aS'PRO'
p286
aS'VAL'
p287
aS'ALA'
p288
aS'ILE'
p289
aS'LEU'
p290
aS'SER'
p291
aS'THR'
p292
aS'ASN'
p293
aS'GLN'
p294
aS'ARG'
p295
aS'LYS'
p296
aS'ASP'
p297
aS'GLU'
p298
aS'CYS'
p299
aS'MET'
p300
aS'GLY'
p301
aS'HIS'
p302
aS'A'
p303
aS'T'
p304
aS'G'
p305
aS'C'
p306
aS'U'
p307
aS'DA'
p308
aS'DT'
p309
aS'DG'
p310
aS'DC'
p311
aS'ADE'
p312
aS'THY'
p313
aS'GUA'
p314
aS'CYT'
p315
aS'URA'
p316
aS'BMA'
p317
aS'MAN'
p318
aS'NAG'
p319
aS'GLC'
p320
aS'BGC'
p321
aS'GCS'
p322
aS'GAL'
p323
aS'NGA'
p324
aS'MGC'
p325
aS'NG1'
p326
aS'NG6'
p327
aS'A2G'
p328
aS'6MN'
p329
aS'GLP'
p330
aS'GP4'
p331
aS'BEM'
p332
aS'KDN'
p333
aS'XLS'
p334
aS'CXY'
p335
aS'RBY'
p336
aS'TDX'
p337
aS'XYL'
p338
aS'XYS'
p339
aS'XYP'
p340
aS'FCA'
p341
aS'FCB'
p342
aS'FUC'
p343
aS'GTR'
p344
aS'ADA'
p345
aS'DGU'
p346
aS'SI3'
p347
aS'NCC'
p348
aS'NGF'
p349
aS'NGE'
p350
aS'NGC'
p351
aS'GC4'
p352
aS'GCD'
p353
aS'GCU'
p354
aS'GCV'
p355
aS'GCW'
p356
aS'IDS'
p357
aS'REL'
p358
aS'IDR'
p359
aS'SIA'
p360
asg122
(lp361
S'grey'
p362
aS'magenta'
p363
aS'magenta'
p364
aS'magenta'
p365
aS'coral'
p366
aS'coral'
p367
aS'coral'
p368
aS'coral'
p369
aS'coral'
p370
aS'cyan'
p371
aS'cyan'
p372
aS'cyan'
p373
aS'cyan'
p374
aS'blue'
p375
aS'blue'
p376
aS'red'
p377
aS'red'
p378
aS'yellow'
p379
aS'yellow'
p380
aS'white'
p381
aS'light blue'
p382
aS'red'
p383
aS'yellow'
p384
aS'green'
p385
aS'blue'
p386
aS'magenta'
p387
aS'red'
p388
aS'yellow'
p389
aS'green'
p390
aS'blue'
p391
aS'red'
p392
aS'yellow'
p393
aS'green'
p394
aS'blue'
p395
aS'magenta'
p396
aS'green'
p397
aS'green'
p398
aS'blue'
p399
aS'blue'
p400
aS'blue'
p401
aS'blue'
p402
aS'yellow'
p403
aS'yellow'
p404
aS'yellow'
p405
aS'yellow'
p406
aS'yellow'
p407
aS'yellow'
p408
aS'blue'
p409
aS'blue'
p410
aS'blue'
p411
aS'green'
p412
aS'light green'
p413
aS'coral'
p414
aS'coral'
p415
aS'coral'
p416
aS'coral'
p417
aS'coral'
p418
aS'coral'
p419
aS'coral'
p420
aS'red'
p421
aS'red'
p422
aS'red'
p423
aS'yellow'
p424
aS'yellow'
p425
aS'yellow'
p426
aS'purple'
p427
aS'purple'
p428
aS'light blue'
p429
aS'light blue'
p430
aS'light blue'
p431
aS'blue'
p432
aS'blue'
p433
aS'blue'
p434
aS'blue'
p435
aS'blue'
p436
aS'blue'
p437
aS'blue'
p438
aS'pale brown'
p439
aS'purple'
p440
asg129
S'clockwise'
p441
sg131
S'HSV'
p442
ssS'smiles_preferences'
p443
(dp444
S'niter'
p445
I200
sS'nconf'
p446
I20
ssS'surface_drawing_style'
p447
(dp448
S'inside_shiny'
p449
I1
sS'line_width'
p450
F1.0
sS'probe_radius'
p451
F1.5
sS'resolution_delta'
p452
I30
sS'dot_spacing'
p453
F0.1
sS'blend_edges'
p454
I0
sS'dot_size'
p455
F1.0
sS'double_side'
p456
I0
sS'inside_colour'
p457
S'default'
p458
sS'context_cutoff'
p459
F6.0
sS'warning_on'
p460
I1
sS'warning_limit'
p461
I1000
ssS'sequence_preferences'
p462
(dp463
S'muscle_exe'
p464
g12
sS'cobalt_dir'
p465
g12
sS'colouring_mode'
p466
I0
sS'blastdb_exe'
p467
g12
sS'cobalt_exe'
p468
g12
sS'mrbump_ccp4_dir'
p469
g12
sS'min_seq_length'
p470
I10
sS'blast_db'
p471
g12
sS'blastp_exe'
p472
g12
sS'font_size'
p473
I12
sS'blastn_exe'
p474
g12
sS'allow_remote_blast'
p475
I0
ssS'advanced_options'
p476
(dp477
S'iconized_display_table'
p478
I0
sS'super_compact_display_table'
p479
I0
sS'dockable_display_table'
p480
I1
sS'developer_mode'
p481
I0
ssS'atomtype'
p482
(dp483
g120
(lp484
g282
aS' C'
p485
aS' O'
p486
aS' N'
p487
aS' S'
p488
aS' H'
p489
aS' P'
p490
asg122
(lp491
S'grey'
p492
aS'green'
p493
aS'red'
p494
aS'blue'
p495
aS'yellow'
p496
aS'grey'
p497
aS'magenta'
p498
asg129
g441
sg131
g442
ssS'secstr'
p499
(dp500
g120
(lp501
S'No structure'
p502
aS'Beta strand'
p503
aS'Beta bulge'
p504
aS'3-turn'
p505
aS'4-turn'
p506
aS'5-turn'
p507
aS'Alpha helix'
p508
asg122
(lp509
S'grey'
p510
aS'blue'
p511
aS'blue'
p512
aS'pink'
p513
aS'tan'
p514
aS'coral'
p515
aS'red'
p516
asg129
g441
sg131
g442
ssS'SASArea_param'
p517
(dp518
S'list_selection_2'
p519
g12
sS'exclude_non_polymer'
p520
I1
sS'brick_margin'
p521
F5.0
sS'list_selection_1'
p522
S'polar_atoms'
p523
sS'limit_selection'
p524
S'amino_acid'
p525
sS'HOHrad'
p526
F1.4
sS'point_density'
p527
F1.0
sS'exclude_solvent'
p528
I1
ssS'movie_preferences'
p529
(dp530
S'show_progress'
p531
I1
sS'player_exe'
p532
S'mplayer'
p533
sS'ffmpeg_exe'
p534
S'ffmpeg'
p535
sS'mencoder_exe'
p536
S'mencoder'
p537
sS'player_command'
p538
S'-loop 0'
p539
sS'convert_command'
p540
S'-quality 100'
p541
sS'mencoder_merge_command'
p542
S'-ovc copy'
p543
sS'convert_exe'
p544
S'convert'
p545
sS'mencoder_command'
p546
S'-ovc lavc -lavcopts vcodec=msmpeg4v2:vbitrate=1800'
p547
sS'ffmpeg_command'
p548
S'-f mpeg -vcodec mpeg1video -ar 48000 -b 7000000 -ab 192000 -y'
p549
sssS'gui_params'
p550
(dp551
S'background_colour'
p552
(lp553
I255
aI255
aI255
asS'defaultObjBodyVisibility'
p554
S'open_all'
p555
sS'main_toolbar'
p556
(dp557
S'toolbar_icon_size'
p558
S'medium'
p559
sS'toolbar_loaded_actions'
p560
(lp561
S'open'
p562
aS'download'
p563
aS'save_status_to_file'
p564
aS'screenshot'
p565
aS'view_back'
p566
aS'view_forward'
p567
aS'display_back'
p568
aS'display_forward'
p569
aS'recentre'
p570
aS'centreOn'
p571
aS'clearLabels'
p572
aS'fog_on'
p573
aS'slab_on'
p574
aS'superpose'
p575
aS'open_movie'
p576
aS'new_movie'
p577
aS'preferences'
p578
aS'picture_wizard'
p579
aS'PDB search'
p580
aS'Geometry'
p581
aS'Glycan viewer'
p582
aS'Download electron density'
p583
aS'Pisa structure analysis'
p584
aS'ProSMART analysis'
p585
aS'Sequence viewer'
p586
aS'Simpler Display Table'
p587
asS'toolbar_style'
p588
S'icon_only'
p589
ssS'last_directory'
p590
S'C:/Users/eliez/OneDrive/Tesis y titulacion/Antimicrobial_Peptides_QSAR_Prediction_Project/PrediccionNovelPeptides/Modelamiento/01.RNSIKPKVKKKWLKLTAKGLLLK'
p591
sS'rockParams'
p592
(dp593
S'rollorientation'
p594
S'y'
p595
sS'rollspeed'
p596
F0.5
sS'rockspeed'
p597
F0.5
sS'rockangle'
p598
I20
ssS'show_scale'
p599
I0
sS'centre_mode'
p600
I0
sS'show_axes'
p601
I0
ssS'picture_wizard'
p602
(dp603
S'recentre_after_wizard'
p604
I1
sS'keep_display_objects'
p605
I0
sS'recentre'
p606
I0
sS'hide_unselected_dataobj'
p607
I0
sS'show_wizard_choices'
p608
I0
sS'default_drawing_style'
p609
S'Ligand_binding_site:Site_and_ribbons_by_PDB_file'
p610
ssS'view2'
p611
(dp612
S'scale'
p613
F94.50791471037684
sS'fog_strength'
p614
I0
sS'transparency'
p615
I00
sS'fog_auto'
p616
I00
sS'quat'
p617
(lp618
F-0.09954824140570369
aF0.29363700124598036
aF-0.9122440891107405
aF-0.2677278114356189
asS'slab_auto'
p619
I00
sS'pos'
p620
(lp621
F-34.08719914759336
aF-33.42799979821529
aF-36.28495370973514
asS'customClipPlanes'
p622
(lp623
sS'slab_offset'
p624
I0
sS'clip_cap'
p625
I00
sS'fog_near'
p626
F-0.0
sS'slab_enabled'
p627
I00
sS'fog_enabled'
p628
I01
sS'slab_width'
p629
I10
sS'fog_far'
p630
F20.0
ssS'applications'
p631
(dp632
S'picture_wizard'
p633
(dp634
g604
I1
sg605
I0
sg606
I0
sg607
I0
sg608
I0
sg609
g610
ssS'Superpose'
p635
(dp636
S'fixed_mask_colour'
p637
S'blue'
p638
sS'monomer_keep_matches'
p639
I0
sS'apply_interactive_all'
p640
I0
sS'close_atoms_res_cutoff'
p641
F2.0
sS'show_mask'
p642
I0
sS'close_atoms_cutoff'
p643
F0.5
sS'close_atoms_initial_global'
p644
I0
sS'show_equiv_mol'
p645
S'model2'
p646
sS'show_equivalents'
p647
I0
sS'close_atoms_central_atom'
p648
S' CA '
p649
sS'show_distances'
p650
I1
sS'moving_mask_colour'
p651
S'dark purple'
p652
sS'superposeModels'
p653
(dp654
S'model3'
p655
(dp656
S'matches'
p657
(lp658
sS'on'
p659
I1
sS'MolData_name'
p660
g655
sS'selection'
p661
S'all'
p662
sS'fixed_MolData_name'
p663
S'model1'
p664
ssg646
(dp665
g657
(lp666
(dp667
g659
I1
sS'qualifier'
p668
g12
sS'sele2'
p669
g12
sS'sele1'
p670
g12
sS'mode'
p671
S'range'
p672
sS'close'
p673
I0
sasg659
I1
sg660
g646
sg661
S'all'
p674
sg663
g664
ssg664
(dp675
g657
(lp676
sg659
I1
sg660
g664
sg661
S'all'
p677
sg663
g664
ssS'model5'
p678
(dp679
g657
(lp680
sg659
I1
sg660
g678
sg661
S'all'
p681
sg663
g664
ssS'model4'
p682
(dp683
g657
(lp684
sg659
I1
sg660
g682
sg661
S'all'
p685
sg663
g664
sssS'selected_atoms_mode'
p686
S'catrace'
p687
sS'conn_colour'
p688
S'black'
p689
sS'fixed'
p690
g664
sS'method'
p691
S'close'
p692
sS'selected_atoms_selection'
p693
(lp694
S'CA'
p695
aS'CB'
p696
asssS'AllModelInfo'
p697
(dp698
S'ampFinal01_model8_3'
p699
(iModelInfo
ModInfo
p700
(dp701
S'ccp4mg_version'
p702
S'2.10.11'
p703
sS'user_colour_schemes'
p704
(dp705
S'hidrop'
p706
(lp707
(lp708
S'blue'
p709
ag12
aa(lp710
S'red'
p711
a(lp712
NaS'/*/*/(ALA,VAL,PRO,LEU,ILE,MET,PHE,TRP)/*:*'
p713
aaassS'pdbfile'
p714
S'C:/Users/eliez/OneDrive/Tesis y titulacion/Antimicrobial_Peptides_QSAR_Prediction_Project/PrediccionNovelPeptides/Modelamiento/01.RNSIKPKVKKKWLKLTAKGLLLK\\ampFinal01-model8.3.pdb'
p715
sbssS'light'
p716
(dp717
I0
(dp718
g35
(F0.0
F0.0
F60.0
tp719
sS'on'
p720
I1
sS'specular'
p721
(F1.0
F1.0
F1.0
tp722
sS'diffuse'
p723
(F1.0
F1.0
F1.0
tp724
sS'ambient'
p725
(F0.0
F0.0
F0.0
tp726
ssS'nLights'
p727
I1
ssS'COLOUR'
p728
(lp729
(lp730
(lp731
g104
a(lp732
F1.0
aF1.0
aF1.0
aF1.0
aaa(lp733
S'ice blue'
p734
a(lp735
F0.61
aF0.69
aF1.0
aF1.0
aaa(lp736
S'gold'
p737
a(lp738
F0.7
aF0.69
aF0.24
aF1.0
aaa(lp739
S'coral'
p740
a(lp741
F1.0
aF0.5
aF0.31
aF1.0
aaa(lp742
S'grey'
p743
a(lp744
F0.5
aF0.5
aF0.5
aF1.0
aaa(lp745
S'pink'
p746
a(lp747
F1.0
aF0.57
aF1.0
aF1.0
aaa(lp748
S'sea green'
p749
a(lp750
F0.5
aF0.73
aF0.71
aF1.0
aaa(lp751
S'pale brown'
p752
a(lp753
F0.66
aF0.49
aF0.37
aF1.0
aaa(lp754
S'lilac'
p755
a(lp756
F0.68
aF0.53
aF0.73
aF1.0
aaa(lp757
S'lemon'
p758
a(lp759
F1.0
aF1.0
aF0.5
aF1.0
aaa(lp760
S'lawn green'
p761
a(lp762
F0.27
aF0.61
aF0.31
aF1.0
aaa(lp763
S'pale crimson'
p764
a(lp765
F0.82
aF0.24
aF0.24
aF1.0
aaa(lp766
S'light blue'
p767
a(lp768
F0.25
aF0.6
aF0.88
aF1.0
aaa(lp769
S'tan'
p770
a(lp771
F0.47
aF0.0
aF0.0
aF1.0
aaa(lp772
S'light green'
p773
a(lp774
F0.6
aF1.0
aF0.6
aF1.0
aaa(lp775
S'yellow'
p776
a(lp777
F1.0
aF1.0
aF0.0
aF1.0
aaa(lp778
S'white'
p779
a(lp780
F1.0
aF1.0
aF1.0
aF1.0
aaa(lp781
g117
a(lp782
F0.0
aF0.0
aF1.0
aF1.0
aaa(lp783
g112
a(lp784
F1.0
aF0.0
aF0.0
aF1.0
aaa(lp785
g108
a(lp786
F0.0
aF1.0
aF0.0
aF1.0
aaa(lp787
g106
a(lp788
F1.0
aF0.0
aF1.0
aF1.0
aaa(lp789
S'cyan'
p790
a(lp791
F0.0
aF1.0
aF0.88
aF1.0
aaa(lp792
S'purple'
p793
a(lp794
F0.58
aF0.0
aF1.0
aF1.0
aaa(lp795
S'dark purple'
p796
a(lp797
F0.57
aF0.13
aF0.34
aF1.0
aaa(lp798
S'dark cyan'
p799
a(lp800
F0.06
aF0.58
aF0.65
aF1.0
aaa(lp801
S'black'
p802
a(lp803
F0.0
aF0.0
aF0.0
aF1.0
aaa(lp804
S'alice blue'
p805
a(lp806
F0.94
aF0.97
aF1.0
aF1.0
aaa(lp807
S'antique white'
p808
a(lp809
F0.98
aF0.92
aF0.84
aF1.0
aaa(lp810
S'aqua'
p811
a(lp812
F0.0
aF1.0
aF1.0
aF1.0
aaa(lp813
S'aquamarine'
p814
a(lp815
F0.5
aF1.0
aF0.83
aF1.0
aaa(lp816
S'azure'
p817
a(lp818
F0.94
aF1.0
aF1.0
aF1.0
aaa(lp819
S'beige'
p820
a(lp821
F0.96
aF0.96
aF0.86
aF1.0
aaa(lp822
S'bisque'
p823
a(lp824
F1.0
aF0.89
aF0.77
aF1.0
aaa(lp825
S'blanched almond'
p826
a(lp827
F1.0
aF0.92
aF0.8
aF1.0
aaa(lp828
S'blue violet'
p829
a(lp830
F0.54
aF0.17
aF0.89
aF1.0
aaa(lp831
S'brown'
p832
a(lp833
F0.65
aF0.16
aF0.16
aF1.0
aaa(lp834
S'burlywood'
p835
a(lp836
F0.87
aF0.72
aF0.53
aF1.0
aaa(lp837
S'cadet blue'
p838
a(lp839
F0.37
aF0.62
aF0.63
aF1.0
aaa(lp840
S'chartreuse'
p841
a(lp842
F0.5
aF1.0
aF0.0
aF1.0
aaa(lp843
S'chocolate'
p844
a(lp845
F0.82
aF0.41
aF0.12
aF1.0
aaa(lp846
S'cornflower blue'
p847
a(lp848
F0.39
aF0.58
aF0.93
aF1.0
aaa(lp849
S'cornsilk'
p850
a(lp851
F1.0
aF0.97
aF0.86
aF1.0
aaa(lp852
S'crimson'
p853
a(lp854
F0.86
aF0.08
aF0.24
aF1.0
aaa(lp855
S'dark blue'
p856
a(lp857
F0.0
aF0.0
aF0.55
aF1.0
aaa(lp858
S'dark goldenrod'
p859
a(lp860
F0.72
aF0.53
aF0.04
aF1.0
aaa(lp861
S'dark gray'
p862
a(lp863
F0.66
aF0.66
aF0.66
aF1.0
aaa(lp864
S'dark green'
p865
a(lp866
F0.0
aF0.39
aF0.0
aF1.0
aaa(lp867
S'dark grey'
p868
a(lp869
F0.66
aF0.66
aF0.66
aF1.0
aaa(lp870
S'dark khaki'
p871
a(lp872
F0.74
aF0.72
aF0.42
aF1.0
aaa(lp873
S'dark magenta'
p874
a(lp875
F0.55
aF0.0
aF0.55
aF1.0
aaa(lp876
S'dark olive green'
p877
a(lp878
F0.33
aF0.42
aF0.18
aF1.0
aaa(lp879
S'dark orange'
p880
a(lp881
F1.0
aF0.55
aF0.0
aF1.0
aaa(lp882
S'dark orchid'
p883
a(lp884
F0.6
aF0.2
aF0.8
aF1.0
aaa(lp885
S'dark red'
p886
a(lp887
F0.55
aF0.0
aF0.0
aF1.0
aaa(lp888
S'dark salmon'
p889
a(lp890
F0.91
aF0.59
aF0.48
aF1.0
aaa(lp891
S'dark sea green'
p892
a(lp893
F0.56
aF0.74
aF0.56
aF1.0
aaa(lp894
S'dark slate blue'
p895
a(lp896
F0.28
aF0.24
aF0.55
aF1.0
aaa(lp897
S'dark slate gray'
p898
a(lp899
F0.18
aF0.31
aF0.31
aF1.0
aaa(lp900
S'dark slate grey'
p901
a(lp902
F0.18
aF0.31
aF0.31
aF1.0
aaa(lp903
S'dark turquoise'
p904
a(lp905
F0.0
aF0.81
aF0.82
aF1.0
aaa(lp906
S'dark violet'
p907
a(lp908
F0.58
aF0.0
aF0.83
aF1.0
aaa(lp909
S'deep pink'
p910
a(lp911
F1.0
aF0.08
aF0.58
aF1.0
aaa(lp912
S'deep sky blue'
p913
a(lp914
F0.0
aF0.75
aF1.0
aF1.0
aaa(lp915
S'dim gray'
p916
a(lp917
F0.41
aF0.41
aF0.41
aF1.0
aaa(lp918
S'dim grey'
p919
a(lp920
F0.41
aF0.41
aF0.41
aF1.0
aaa(lp921
S'dodger blue'
p922
a(lp923
F0.12
aF0.56
aF1.0
aF1.0
aaa(lp924
S'firebrick'
p925
a(lp926
F0.7
aF0.13
aF0.13
aF1.0
aaa(lp927
S'floral white'
p928
a(lp929
F1.0
aF0.98
aF0.94
aF1.0
aaa(lp930
S'forest green'
p931
a(lp932
F0.13
aF0.55
aF0.13
aF1.0
aaa(lp933
S'fuchsia'
p934
a(lp935
F1.0
aF0.0
aF1.0
aF1.0
aaa(lp936
S'gainsboro'
p937
a(lp938
F0.86
aF0.86
aF0.86
aF1.0
aaa(lp939
S'ghost white'
p940
a(lp941
F0.97
aF0.97
aF1.0
aF1.0
aaa(lp942
S'goldenrod'
p943
a(lp944
F0.85
aF0.65
aF0.13
aF1.0
aaa(lp945
S'gray'
p946
a(lp947
F0.75
aF0.75
aF0.75
aF1.0
aaa(lp948
S'green yellow'
p949
a(lp950
F0.68
aF1.0
aF0.18
aF1.0
aaa(lp951
S'honeydew'
p952
a(lp953
F0.94
aF1.0
aF0.94
aF1.0
aaa(lp954
S'hot pink'
p955
a(lp956
F1.0
aF0.41
aF0.71
aF1.0
aaa(lp957
S'indian red'
p958
a(lp959
F0.8
aF0.36
aF0.36
aF1.0
aaa(lp960
S'indigo'
p961
a(lp962
F0.29
aF0.0
aF0.51
aF1.0
aaa(lp963
S'ivory'
p964
a(lp965
F1.0
aF1.0
aF0.94
aF1.0
aaa(lp966
S'khaki'
p967
a(lp968
F0.94
aF0.9
aF0.55
aF1.0
aaa(lp969
S'lavender blush'
p970
a(lp971
F1.0
aF0.94
aF0.96
aF1.0
aaa(lp972
S'lavender'
p973
a(lp974
F0.9
aF0.9
aF0.98
aF1.0
aaa(lp975
S'lemon chiffon'
p976
a(lp977
F1.0
aF0.98
aF0.8
aF1.0
aaa(lp978
S'light coral'
p979
a(lp980
F0.94
aF0.5
aF0.5
aF1.0
aaa(lp981
S'light cyan'
p982
a(lp983
F0.88
aF1.0
aF1.0
aF1.0
aaa(lp984
S'light goldenrod yellow'
p985
a(lp986
F0.98
aF0.98
aF0.82
aF1.0
aaa(lp987
S'light goldenrod'
p988
a(lp989
F0.93
aF0.87
aF0.51
aF1.0
aaa(lp990
S'light gray'
p991
a(lp992
F0.83
aF0.83
aF0.83
aF1.0
aaa(lp993
S'light grey'
p994
a(lp995
F0.83
aF0.83
aF0.83
aF1.0
aaa(lp996
S'light pink'
p997
a(lp998
F1.0
aF0.71
aF0.76
aF1.0
aaa(lp999
S'light salmon'
p1000
a(lp1001
F1.0
aF0.63
aF0.48
aF1.0
aaa(lp1002
S'light sea green'
p1003
a(lp1004
F0.13
aF0.7
aF0.67
aF1.0
aaa(lp1005
S'light sky blue'
p1006
a(lp1007
F0.53
aF0.81
aF0.98
aF1.0
aaa(lp1008
S'light slate blue'
p1009
a(lp1010
F0.52
aF0.44
aF1.0
aF1.0
aaa(lp1011
S'light slate gray'
p1012
a(lp1013
F0.47
aF0.53
aF0.6
aF1.0
aaa(lp1014
S'light slate grey'
p1015
a(lp1016
F0.47
aF0.53
aF0.6
aF1.0
aaa(lp1017
S'light steel blue'
p1018
a(lp1019
F0.69
aF0.77
aF0.87
aF1.0
aaa(lp1020
S'light yellow'
p1021
a(lp1022
F1.0
aF1.0
aF0.88
aF1.0
aaa(lp1023
S'lime green'
p1024
a(lp1025
F0.2
aF0.8
aF0.2
aF1.0
aaa(lp1026
S'lime'
p1027
a(lp1028
F0.0
aF1.0
aF0.0
aF1.0
aaa(lp1029
S'linen'
p1030
a(lp1031
F0.98
aF0.94
aF0.9
aF1.0
aaa(lp1032
S'maroon'
p1033
a(lp1034
F0.69
aF0.19
aF0.38
aF1.0
aaa(lp1035
S'medium aquamarine'
p1036
a(lp1037
F0.4
aF0.8
aF0.67
aF1.0
aaa(lp1038
S'medium blue'
p1039
a(lp1040
F0.0
aF0.0
aF0.8
aF1.0
aaa(lp1041
S'medium orchid'
p1042
a(lp1043
F0.73
aF0.33
aF0.83
aF1.0
aaa(lp1044
S'medium purple'
p1045
a(lp1046
F0.58
aF0.44
aF0.86
aF1.0
aaa(lp1047
S'medium sea green'
p1048
a(lp1049
F0.24
aF0.7
aF0.44
aF1.0
aaa(lp1050
S'medium slate blue'
p1051
a(lp1052
F0.48
aF0.41
aF0.93
aF1.0
aaa(lp1053
S'medium spring green'
p1054
a(lp1055
F0.0
aF0.98
aF0.6
aF1.0
aaa(lp1056
S'medium turquoise'
p1057
a(lp1058
F0.28
aF0.82
aF0.8
aF1.0
aaa(lp1059
S'medium violet red'
p1060
a(lp1061
F0.78
aF0.08
aF0.52
aF1.0
aaa(lp1062
S'midnight blue'
p1063
a(lp1064
F0.1
aF0.1
aF0.44
aF1.0
aaa(lp1065
S'mint cream'
p1066
a(lp1067
F0.96
aF1.0
aF0.98
aF1.0
aaa(lp1068
S'misty rose'
p1069
a(lp1070
F1.0
aF0.89
aF0.88
aF1.0
aaa(lp1071
S'moccasin'
p1072
a(lp1073
F1.0
aF0.89
aF0.71
aF1.0
aaa(lp1074
S'navajo white'
p1075
a(lp1076
F1.0
aF0.87
aF0.68
aF1.0
aaa(lp1077
S'navy blue'
p1078
a(lp1079
F0.0
aF0.0
aF0.5
aF1.0
aaa(lp1080
S'navy'
p1081
a(lp1082
F0.0
aF0.0
aF0.5
aF1.0
aaa(lp1083
S'old lace'
p1084
a(lp1085
F0.99
aF0.96
aF0.9
aF1.0
aaa(lp1086
S'olive drab'
p1087
a(lp1088
F0.42
aF0.56
aF0.14
aF1.0
aaa(lp1089
S'olive'
p1090
a(lp1091
F0.5
aF0.5
aF0.0
aF1.0
aaa(lp1092
S'orange red'
p1093
a(lp1094
F1.0
aF0.27
aF0.0
aF1.0
aaa(lp1095
S'orange'
p1096
a(lp1097
F1.0
aF0.65
aF0.0
aF1.0
aaa(lp1098
S'orchid'
p1099
a(lp1100
F0.85
aF0.44
aF0.84
aF1.0
aaa(lp1101
S'pale goldenrod'
p1102
a(lp1103
F0.93
aF0.91
aF0.67
aF1.0
aaa(lp1104
S'pale green'
p1105
a(lp1106
F0.6
aF0.98
aF0.6
aF1.0
aaa(lp1107
S'pale turquoise'
p1108
a(lp1109
F0.69
aF0.93
aF0.93
aF1.0
aaa(lp1110
S'pale violet red'
p1111
a(lp1112
F0.86
aF0.44
aF0.58
aF1.0
aaa(lp1113
S'papaya whip'
p1114
a(lp1115
F1.0
aF0.94
aF0.84
aF1.0
aaa(lp1116
S'peach puff'
p1117
a(lp1118
F1.0
aF0.85
aF0.73
aF1.0
aaa(lp1119
S'peru'
p1120
a(lp1121
F0.8
aF0.52
aF0.25
aF1.0
aaa(lp1122
S'plum'
p1123
a(lp1124
F0.87
aF0.63
aF0.87
aF1.0
aaa(lp1125
S'powder blue'
p1126
a(lp1127
F0.69
aF0.88
aF0.9
aF1.0
aaa(lp1128
S'rebecca purple'
p1129
a(lp1130
F0.4
aF0.2
aF0.6
aF1.0
aaa(lp1131
S'rosy brown'
p1132
a(lp1133
F0.74
aF0.56
aF0.56
aF1.0
aaa(lp1134
S'royal blue'
p1135
a(lp1136
F0.25
aF0.41
aF0.88
aF1.0
aaa(lp1137
S'saddle brown'
p1138
a(lp1139
F0.55
aF0.27
aF0.07
aF1.0
aaa(lp1140
S'salmon'
p1141
a(lp1142
F0.98
aF0.5
aF0.45
aF1.0
aaa(lp1143
S'sandy brown'
p1144
a(lp1145
F0.96
aF0.64
aF0.38
aF1.0
aaa(lp1146
S'seashell'
p1147
a(lp1148
F1.0
aF0.96
aF0.93
aF1.0
aaa(lp1149
S'sienna'
p1150
a(lp1151
F0.63
aF0.32
aF0.18
aF1.0
aaa(lp1152
S'silver'
p1153
a(lp1154
F0.75
aF0.75
aF0.75
aF1.0
aaa(lp1155
S'sky blue'
p1156
a(lp1157
F0.53
aF0.81
aF0.92
aF1.0
aaa(lp1158
S'slate blue'
p1159
a(lp1160
F0.42
aF0.35
aF0.8
aF1.0
aaa(lp1161
S'slate gray'
p1162
a(lp1163
F0.44
aF0.5
aF0.56
aF1.0
aaa(lp1164
S'slate grey'
p1165
a(lp1166
F0.44
aF0.5
aF0.56
aF1.0
aaa(lp1167
S'snow'
p1168
a(lp1169
F1.0
aF0.98
aF0.98
aF1.0
aaa(lp1170
S'spring green'
p1171
a(lp1172
F0.0
aF1.0
aF0.5
aF1.0
aaa(lp1173
S'steel blue'
p1174
a(lp1175
F0.27
aF0.51
aF0.71
aF1.0
aaa(lp1176
S'teal'
p1177
a(lp1178
F0.0
aF0.5
aF0.5
aF1.0
aaa(lp1179
S'thistle'
p1180
a(lp1181
F0.85
aF0.75
aF0.85
aF1.0
aaa(lp1182
S'tomato'
p1183
a(lp1184
F1.0
aF0.39
aF0.28
aF1.0
aaa(lp1185
S'turquoise'
p1186
a(lp1187
F0.25
aF0.88
aF0.82
aF1.0
aaa(lp1188
S'violet red'
p1189
a(lp1190
F0.82
aF0.13
aF0.56
aF1.0
aaa(lp1191
S'violet'
p1192
a(lp1193
F0.93
aF0.51
aF0.93
aF1.0
aaa(lp1194
S'web gray'
p1195
a(lp1196
F0.5
aF0.5
aF0.5
aF1.0
aaa(lp1197
S'web green'
p1198
a(lp1199
F0.0
aF0.5
aF0.0
aF1.0
aaa(lp1200
S'web grey'
p1201
a(lp1202
F0.5
aF0.5
aF0.5
aF1.0
aaa(lp1203
S'web maroon'
p1204
a(lp1205
F0.5
aF0.0
aF0.0
aF1.0
aaa(lp1206
S'web purple'
p1207
a(lp1208
F0.5
aF0.0
aF0.5
aF1.0
aaa(lp1209
S'wheat'
p1210
a(lp1211
F0.96
aF0.87
aF0.7
aF1.0
aaa(lp1212
S'white smoke'
p1213
a(lp1214
F0.96
aF0.96
aF0.96
aF1.0
aaa(lp1215
S'x11 gray'
p1216
a(lp1217
F0.75
aF0.75
aF0.75
aF1.0
aaa(lp1218
S'x11 green'
p1219
a(lp1220
F0.0
aF1.0
aF0.0
aF1.0
aaa(lp1221
S'x11 grey'
p1222
a(lp1223
F0.75
aF0.75
aF0.75
aF1.0
aaa(lp1224
S'x11 maroon'
p1225
a(lp1226
F0.69
aF0.19
aF0.38
aF1.0
aaa(lp1227
S'x11 purple'
p1228
a(lp1229
F0.63
aF0.13
aF0.94
aF1.0
aaa(lp1230
S'yellow green'
p1231
a(lp1232
F0.6
aF0.8
aF0.2
aF1.0
aaaaI169
asS'fonts'
p1233
(dp1234
S'atom_label'
p1235
(dp1236
S'size'
p1237
I13
sS'underline'
p1238
I0
sS'weight'
p1239
S'normal'
p1240
sS'family'
p1241
csip
_unpickle_type
p1242
(S'PyQt4.QtCore'
p1243
S'QString'
p1244
(VMS Shell Dlg 2
p1245
tp1246
tp1247
Rp1248
sS'slant'
p1249
S'r'
p1250
ssS'applicationFont'
p1251
(dp1252
g1237
I8
sg1238
I0
sg1239
g1240
sg1241
g1242
(g1243
S'QString'
p1253
(VMS Shell Dlg 2
p1254
tp1255
tp1256
Rp1257
sg1249
g1250
ssS'annotation'
p1258
(dp1259
g1237
I18
sg1238
I0
sg1239
g1240
sg1241
g1242
(g1243
S'QString'
p1260
(VMS Shell Dlg 2
p1261
tp1262
tp1263
Rp1264
sg1249
g1250
ssS'pick_atom_label'
p1265
(dp1266
g1237
I13
sg1238
I0
sg1239
g1240
sg1241
g1242
(g1243
S'QString'
p1267
(VMS Shell Dlg 2
p1268
tp1269
tp1270
Rp1271
sg1249
g1250
ssS'legend'
p1272
(dp1273
g1237
I32
sg1238
I0
sg1239
g1240
sg1241
g1242
(g1243
S'QString'
p1274
(VMS Shell Dlg 2
p1275
tp1276
tp1277
Rp1278
sg1249
g1250
sssS'pick_labels'
p1279
(dp1280
S'max_labels'
p1281
I20
sg135
I0
sg139
I6
sg140
(lp1282
I0
aI0
aI0
aI1
aI1
aI1
aI1
aI0
aI0
aI0
aI0
aI0
aI0
aI0
aI0
aI0
assS'file_viewer'
p1283
(dp1284
S'supported_plugins'
p1285
(dp1286
ssS'Data_list'
p1287
(lp1288
g699
ag1
asS'version'
p1289
g703
sS'ModelInfo'
p1290
(dp1291
S'user_file'
p1292
(dp1293
S'generic'
p1294
(lp1295
S'dotCCP4MG'
p1296
aS'generic.ccp4mg'
p1297
aS'C:\\Users\\eliez\\CCP4MG2\\generic.ccp4mg'
p1298
asssS'plugins'
p1299
(dp1300
S'ShadersPlugin'
p1301
(dp1302
S'use_shadows'
p1303
I0
sS'use_shaders'
p1304
I0
sS'use_outline'
p1305
I0
sS'use_ambocc'
p1306
I0
ssS'Render'
p1307
(dp1308
S'scalebartext'
p1309
I01
sS'stereo'
p1310
I00
sS'save_status'
p1311
I01
sS'dpi_spin'
p1312
I300
sS'scaleFonts'
p1313
I1
sS'stereo_sep'
p1314
F0.1
sS'height_dpi_inches'
p1315
F4.31
sS'height'
p1316
I430
sS'stereo_angle'
p1317
F6.0
sS'width'
p1318
I600
sS'magnification'
p1319
F1.0
sS'keepAspect'
p1320
I1
sS'size_mode'
p1321
S'dpi_defined'
p1322
sS'scaleLines'
p1323
I1
sS'stereo_mode'
p1324
S'shear'
p1325
sS'scaleImages'
p1326
I1
sS'preview'
p1327
I01
sS'transparent'
p1328
I01
sS'renderParams'
p1329
(dp1330
S'ambocc_samples'
p1331
I64
sS'save_rib'
p1332
I00
sS'ambocc_scale'
p1333
F1.0
sS'ambocc'
p1334
I00
sS'smoothRibbons'
p1335
I00
sS'raytrace'
p1336
I01
ssS'width_dpi_inches'
p1337
F6.0
ssS'GeometryPlugin'
p1338
(dp1339
S'atoms'
p1340
(lp1341
(lp1342
asssS'mouse_bindings'
p1343
(dp1344
S'translate-z'
p1345
(dp1346
S'shift'
p1347
I0
sS'alt'
p1348
I0
sS'mouse_button'
p1349
S'middle'
p1350
sS'key'
p1351
S'z'
p1352
sS'ctrl'
p1353
I0
ssS'object-rotate-xy'
p1354
(dp1355
g1347
I0
sg1348
I0
sg1349
S'left'
p1356
sg1351
S'x'
p1357
sg1353
I0
ssS'rotate-xy'
p1358
(dp1359
g1347
I0
sg1348
I0
sg1349
g1356
sg1351
S' '
p1360
sg1353
I0
ssS'object-translate-z'
p1361
(dp1362
g1347
I1
sg1348
I0
sg1349
g1350
sg1351
g1357
sg1353
I0
ssS'zoom'
p1363
(dp1364
g1347
I0
sg1348
I0
sg1349
g1350
sg1351
g1360
sg1353
I0
ssS'translate-xy'
p1365
(dp1366
g1347
I1
sg1348
I0
sg1349
g1350
sg1351
g1360
sg1353
I0
ssS'clip-width'
p1367
(dp1368
g1347
I0
sg1348
I0
sg1349
g1350
sg1351
S'c'
p1369
sg1353
I0
ssS'rotate-z'
p1370
(dp1371
g1347
I1
sg1348
I0
sg1349
g1356
sg1351
g1360
sg1353
I0
ssS'object-rotate-z'
p1372
(dp1373
g1347
I1
sg1348
I0
sg1349
g1356
sg1351
g1357
sg1353
I0
ssS'object-translate-xy'
p1374
(dp1375
g1347
I0
sg1348
I0
sg1349
g1350
sg1351
g1357
sg1353
I0
sssS'windowGeometry'
p1376
g1242
(g1243
S'QByteArray'
p1377
(S'\x01\xd9\xd0\xcb\x00\x01\x00\x00\xff\xff\xff\xf7\xff\xff\xff\xf7\x00\x00\x07\x88\x00\x00\x04\x04\x00\x00\x00=\x00\x00\x00?\x00\x00\x06i\x00\x00\x03\xc0\x00\x00\x00\x00\x02\x00'
p1378
tp1379
tp1380
Rp1381
sg699
(idataobj
DataObjShadow
p1382
(dp1383
g4
g699
sg5
S'MolData'
p1384
sg7
(lp1385
S'ampFinal01_model8_3MolDisp1'
p1386
aS'ampFinal01_model8_3MolDisp2'
p1387
aS'ampFinal01_model8_3SurfaceDispobj3'
p1388
asg11
(lp1389
S'FULLPATH'
p1390
ag715
ag715
asg13
(dp1391
g15
I1
sg16
S'BF0C452B1F0640AB82B7389C3D617BE9'
p1392
sS'mol_colour'
p1393
g734
sS'check_graphs'
p1394
I1
sg5
g1384
sS'show_aromatic_rings'
p1395
I1
sg18
S'model'
p1396
sg11
g1389
sg20
I1
sS'customResCIFFiles'
p1397
(dp1398
sg21
g703
sS'model_symmetry'
p1399
(dp1400
S'symmetry_visible'
p1401
(lp1402
sS'symmetry_colours'
p1403
(lp1404
sS'MolDisp_selection'
p1405
S'all atoms'
p1406
sS'symmetry_MolDisp_objects'
p1407
(lp1408
sS'MolDisp_visible'
p1409
I1
ssS'lastWizardRun'
p1410
S'Ligand_binding_site:Site_and_ribbons_by_PDB_file'
p1411
ssg20
I1
sg23
(lp1412
(idataobj
DispObjShadow
p1413
(dp1414
S'colparams'
p1415
(dp1416
S'interface_MolData_name'
p1417
g12
sS'non_C_atomtype'
p1418
I0
sS'colour_blend'
p1419
(dp1420
g122
(lp1421
(lp1422
S'blue'
p1423
aS'red'
p1424
aasS'selection_command'
p1425
(lp1426
S'peptide'
p1427
asS'direction'
p1428
(lp1429
S'anti-clockwise'
p1430
asS'default_colour'
p1431
g184
sS'group'
p1432
S'residue'
p1433
sS'type'
p1434
S'all'
p1435
ssS'one_colour'
p1436
g12
sS'user_scheme'
p1437
(lp1438
S'Edited scheme'
p1439
asS'stick_colour'
p1440
S'ATOM'
p1441
sS'colour_legend'
p1442
S'<span style="color:;">User colour rules </span>\n</p><p><span style="color:red;">/*/*/(ALA,VAL,PRO,LEU,ILE </span>\n</p><p>'
p1443
sS'interface_selection'
p1444
g12
sS'colour_mode'
p1445
S'rules'
p1446
sS'colour_rules'
p1447
(lp1448
(lp1449
S'blue'
p1450
ag12
aa(lp1451
S'red'
p1452
a(lp1453
NaS'/*/*/(ALA,VAL,PRO,LEU,ILE,MET,PHE,TRP)/*:*'
p1454
aaasS'interface_style'
p1455
S'RESIDUE'
p1456
ssg4
g1386
sg5
S'MolDisp'
p1457
sg20
I1
sS'selparams'
p1458
(dp1459
S'features'
p1460
g12
sS'symid'
p1461
g12
sS'neighb_mol'
p1462
g12
sS'ranges_neighb_invert'
p1463
I0
sS'buried_sel'
p1464
g12
sS'contact_mol'
p1465
g12
sS'property_join'
p1466
S'and'
p1467
sS'neighb_rad'
p1468
S'4.0'
p1469
sS'select'
p1470
S'cid'
p1471
sS'restypes'
p1472
(lp1473
sS'ranges_neighb_cutoff'
p1474
F4.0
sS'ranges_extend'
p1475
I1
sS'nmr_models'
p1476
(lp1477
sS'ranges_neighb_model'
p1478
g12
sS'sites'
p1479
(lp1480
sS'ranges_neighb_qualifier'
p1481
g1435
sS'neighb_excl_solvent'
p1482
I0
sS'buried_mol'
p1483
g12
sS'entities'
p1484
(lp1485
sS'same_as'
p1486
I0
sS'secstr'
p1487
(lp1488
sS'neighb_hb'
p1489
I0
sS'nglycosylation'
p1490
(lp1491
sS'chains'
p1492
(lp1493
sS'property_gt_value'
p1494
(lp1495
sS'alt_locs'
p1496
(lp1497
sS'contact_sel'
p1498
g12
sS'property_gt_op'
p1499
(lp1500
sS'nothydrogen'
p1501
I0
sS'buried_group'
p1502
S'atom'
p1503
sS'property_lt_value'
p1504
(lp1505
sS'as_MolDisp'
p1506
g12
sg120
(lp1507
sS'elementtypes'
p1508
(lp1509
sS'neighb_excl_monomer'
p1510
I0
sS'selection_scheme'
p1511
g12
sS'ranges_qualifier'
p1512
g12
sS'ligands'
p1513
(lp1514
sS'neighb_sel'
p1515
g12
sS'use_all_models'
p1516
I00
sS'neighb_sym'
p1517
I0
sS'user_sel'
p1518
g12
sg1471
g1427
sS'neighb_excl'
p1519
I1
sS'property_lt_op'
p1520
(lp1521
sS'ranges_invert'
p1522
I0
sS'atomtype'
p1523
g12
sS'command'
p1524
g1427
sS'neighb_selobj'
p1525
g12
sS'neighb_group'
p1526
g1433
sS'buried_and_selection'
p1527
g12
sS'property'
p1528
(lp1529
sS'ranges_neighb_selection'
p1530
g12
sS'oglycosylation'
p1531
(lp1532
ssg27
(dp1533
g29
F1.0
sg16
S'6E223B25C0204889AD29D85823E3D647'
p1534
sS'doCentralSymmetry'
p1535
I01
sg33
I0
sS'nbiomol'
p1536
I-1
sg20
I1
sS'doSymmetry'
p1537
I01
sg34
g12
sg37
S'ribbon'
p1538
sS'doBiomolecule'
p1539
I00
sS'contact_MolDisp'
p1540
g12
sS'label_params'
p1541
(dp1542
g140
g141
sS'label_user_oneperres'
p1543
I1
sS'label_colour'
p1544
S'complement'
p1545
sg135
I0
sS'label_user_selparams'
p1546
(dp1547
sg137
g138
sg139
I6
sssS'styleparams'
p1548
(dp1549
S'style_mode'
p1550
S'SPLINE'
p1551
sS'inter_dispobj_bond'
p1552
I1
ssba(idataobj
DispObjShadow
p1553
(dp1554
g1415
(dp1555
g1417
g12
sg1418
I0
sg1419
(dp1556
g122
g1421
sg1425
g1426
sg1428
g1429
sg1431
g184
sg1432
g1433
sg1434
g1435
ssg1436
g12
sg1437
(lp1557
S'Edited scheme'
p1558
asg1440
g1441
sg1442
g12
sg1444
g12
sg1445
g1523
sg1447
(lp1559
sg1455
g1456
ssg4
g1387
sg5
g1457
sg20
I0
sg1458
(dp1560
g1460
g12
sg1461
g12
sg1462
g12
sg1463
I0
sg1464
g12
sg1465
g12
sg1466
g1467
sg1468
g1469
sg1470
g1471
sg1472
(lp1561
sg1474
F4.0
sg1475
I1
sg1476
(lp1562
sg1478
g12
sg1479
(lp1563
sg1481
g1435
sg1482
I0
sg1483
g12
sg1484
(lp1564
sg1486
I0
sg1487
(lp1565
sg1489
I0
sg1490
(lp1566
sg1492
(lp1567
sg1494
(lp1568
sg1496
(lp1569
sg1498
g12
sg1499
(lp1570
sg1501
I0
sg1502
g1503
sg1504
(lp1571
sg1506
g12
sg120
(lp1572
sg1508
(lp1573
sg1510
I0
sg1511
g12
sg1512
g12
sg1513
(lp1574
sg1515
g12
sg1516
I00
sg1517
I0
sg1518
g12
sg1471
g1435
sg1519
I1
sg1520
(lp1575
sg1522
I0
sg1523
g12
sg1524
g1435
sg1525
g12
sg1526
g1433
sg1527
g12
sg1528
(lp1576
sg1530
g12
sg1531
(lp1577
ssg27
(dp1578
g29
F1.0
sg16
S'76317557789B4108923C5F8DF9C777B8'
p1579
sg1535
I01
sg33
I0
sg1536
I-1
sg20
I0
sg1537
I01
sg34
g12
sg37
S'bonds'
p1580
sg1539
I00
sg1540
g12
sg1541
(dp1581
g140
g141
sg1543
I1
sg1544
g1545
sg135
I0
sg1546
g1547
sg137
g138
sg139
I6
sssg1548
(dp1582
g1550
S'BONDS'
p1583
sg1552
I1
ssba(idataobj
DispObjShadow
p1584
(dp1585
g1415
(dp1586
g1417
g12
sg1418
I0
sg1419
(dp1587
g122
g1421
sg1425
g1426
sg1428
g1429
sg1431
g184
sg1432
g1433
sg1434
g1435
ssg1436
g12
sg1437
g1557
sg1440
g1441
sg1442
g12
sg1444
g12
sg1445
S'electrostatic'
p1588
sg1447
g1559
sg1455
g1456
ssg4
g1388
sg5
S'SurfaceDispobj'
p1589
sg20
I0
sg1458
(dp1590
g1460
g12
sg1461
g12
sg1462
g12
sg1463
I0
sg1464
g12
sg1465
g12
sg1466
g1467
sg1468
g1469
sg1470
g1427
sg1472
(lp1591
sg1474
F4.0
sg1475
I1
sg1476
(lp1592
sg1478
g12
sg1479
(lp1593
sg1481
g1435
sg1482
I0
sg1483
g12
sg1484
(lp1594
sg1486
I0
sg1487
(lp1595
sg1489
I0
sg1490
(lp1596
sg1492
(lp1597
sg1494
(lp1598
sg1496
(lp1599
sg1498
g12
sg1499
(lp1600
sg1501
I0
sg1502
g1503
sg1504
(lp1601
sg1506
g12
sg120
(lp1602
sg1508
(lp1603
sg1510
I0
sg1511
g12
sg1512
g12
sg1513
(lp1604
sg1515
g12
sg1516
I00
sg1517
I0
sg1518
g12
sg1471
g12
sg1519
I1
sg1520
(lp1605
sg1522
I0
sg1523
g12
sg1524
g1427
sg1525
g12
sg1526
g1433
sg1527
g12
sg1528
(lp1606
sg1530
g12
sg1531
(lp1607
ssg27
(dp1608
g29
F1.0
sS'surface_type'
p1609
S'normal'
p1610
sg16
S'FC0098DE1805470C9030DFB0F90FA63C'
p1611
sg33
I0
sg20
I0
sS'surface_style'
p1612
S'solid'
p1613
sg34
g12
sg37
S'whole_surface'
p1614
ssg1548
(dp1615
g1460
g12
sg1461
g12
sg1462
g12
sg1463
I0
sg1464
g12
sg1465
g12
sg1466
g1467
sg1468
g1469
sg1470
g1427
sg1472
(lp1616
sg1474
F4.0
sg1475
I1
sg1476
(lp1617
sg1478
g12
sg1479
(lp1618
sg1481
g1435
sg1482
I0
sg1483
g12
sg1484
(lp1619
sg1486
g1388
sg1487
(lp1620
sg1489
I0
sg1490
(lp1621
sg1492
(lp1622
sg1494
(lp1623
sg1496
(lp1624
sg1498
g12
sg1499
(lp1625
sg1501
I0
sg1502
g1503
sg1504
(lp1626
sg1506
g12
sg120
(lp1627
sg1508
(lp1628
sg1510
I0
sg1511
g12
sg1512
g12
sg1513
(lp1629
sg1515
g12
sg1516
I00
sg1517
I0
sg1518
g12
sg1471
g12
sg1519
I1
sg1520
(lp1630
sg1522
I0
sg1523
g12
sg1524
g1427
sg1525
g12
sg1526
g1433
sg1527
g12
sg1528
(lp1631
sg1530
g12
sg1531
(lp1632
ssbasbs.