(dp0
S'Data_list'
p1
(lp2
S'ampFinal03_model24'
p3
aS'ampFinal04_model43'
p4
aS'ampFinal05_model153'
p5
aS'ampFinal06_model8'
p6
aS'ampFinal07_model79'
p7
aS'ampFinal08_model1_3'
p8
aS'ampFinal09_model57'
p9
aS'ampFinal10_model49_1'
p10
aS'Legends&Images'
p11
asS'view2'
p12
(dp13
S'scale'
p14
F73.02795054148935
sS'fog_strength'
p15
I0
sS'transparency'
p16
I00
sS'fog_auto'
p17
I00
sS'quat'
p18
(lp19
F-0.3909236286377134
aF-0.12291449977337024
aF-0.8266319444113522
aF-0.3856816962190787
asS'slab_auto'
p20
I00
sS'pos'
p21
(lp22
F-33.07004431480114
aF-35.171837390749545
aF-36.83734858171376
asS'customClipPlanes'
p23
(lp24
sS'slab_offset'
p25
I0
sS'clip_cap'
p26
I00
sS'fog_near'
p27
F-0.0
sS'slab_enabled'
p28
I00
sS'fog_enabled'
p29
I0
sS'slab_width'
p30
I10
sS'fog_far'
p31
F20.0
ssg6
(idataobj
DataObjShadow
p32
(dp33
S'name'
p34
g6
sS'object_type'
p35
S'MolData'
p36
sS'objnames'
p37
(lp38
S'ampFinal06_model8MolDisp1'
p39
aS'ampFinal06_model8MolDisp2'
p40
aS'ampFinal06_model8SurfaceDispobj3'
p41
asS'filename'
p42
(lp43
S'FULLPATH'
p44
aS'C:/Users/eliez/OneDrive/Tesis y titulacion/Antimicrobial_Peptides_QSAR_Prediction_Project/PrediccionNovelPeptides/Modelamiento/06.WRRLKLFKTSKVKYIYKKKGSLVK\\ampFinal06-model8.pdb'
p45
ag45
asS'dataparams'
p46
(dp47
S'expanded'
p48
I1
sS'uuid'
p49
S'C9B3D85E8E684F54A74ACB618F946DBC'
p50
sS'mol_colour'
p51
S'grey'
p52
sS'check_graphs'
p53
I1
sg35
g36
sS'show_aromatic_rings'
p54
I1
sS'module'
p55
S'model'
p56
sg42
g43
sS'visible'
p57
I1
sS'customResCIFFiles'
p58
(dp59
sS'ccp4mg_creator_version'
p60
S'2.10.11'
p61
sS'model_symmetry'
p62
(dp63
S'symmetry_visible'
p64
(lp65
sS'symmetry_colours'
p66
(lp67
sS'MolDisp_selection'
p68
S'all atoms'
p69
sS'symmetry_MolDisp_objects'
p70
(lp71
sS'MolDisp_visible'
p72
I1
ssS'lastWizardRun'
p73
S'Ligand_binding_site:Site_and_ribbons_by_PDB_file'
p74
ssg57
I1
sS'objinsts'
p75
(lp76
(idataobj
DispObjShadow
p77
(dp78
S'colparams'
p79
(dp80
S'interface_MolData_name'
p81
S''
p82
sS'non_C_atomtype'
p83
I0
sS'colour_blend'
p84
(dp85
S'colours'
p86
(lp87
(lp88
S'blue'
p89
aS'red'
p90
aasS'selection_command'
p91
(lp92
S'peptide'
p93
asS'direction'
p94
(lp95
S'anti-clockwise'
p96
asS'default_colour'
p97
S'white'
p98
sS'group'
p99
S'residue'
p100
sS'type'
p101
S'all'
p102
ssS'one_colour'
p103
g82
sS'user_scheme'
p104
(lp105
S'Edited scheme'
p106
asS'stick_colour'
p107
S'ATOM'
p108
sS'colour_legend'
p109
S'<span style="color:;">User colour rules </span>\n</p><p><span style="color:red;">/*/*/(ALA,VAL,PRO,LEU,ILE </span>\n</p><p>'
p110
sS'interface_selection'
p111
g82
sS'colour_mode'
p112
S'rules'
p113
sS'colour_rules'
p114
(lp115
(lp116
S'blue'
p117
ag82
aa(lp118
S'red'
p119
a(lp120
NaS'/*/*/(ALA,VAL,PRO,LEU,ILE,MET,PHE,TRP)/*:*'
p121
aaasS'interface_style'
p122
S'RESIDUE'
p123
ssg34
g39
sg35
S'MolDisp'
p124
sg57
I0
sS'selparams'
p125
(dp126
S'features'
p127
g82
sS'symid'
p128
g82
sS'neighb_mol'
p129
g82
sS'ranges_neighb_invert'
p130
I0
sS'buried_sel'
p131
g82
sS'contact_mol'
p132
g82
sS'property_join'
p133
S'and'
p134
sS'neighb_rad'
p135
S'4.0'
p136
sS'select'
p137
S'cid'
p138
sS'restypes'
p139
(lp140
sS'ranges_neighb_cutoff'
p141
F4.0
sS'ranges_extend'
p142
I1
sS'nmr_models'
p143
(lp144
sS'ranges_neighb_model'
p145
g82
sS'sites'
p146
(lp147
sS'ranges_neighb_qualifier'
p148
g102
sS'neighb_excl_solvent'
p149
I0
sS'buried_mol'
p150
g82
sS'entities'
p151
(lp152
sS'same_as'
p153
I0
sS'secstr'
p154
(lp155
sS'neighb_hb'
p156
I0
sS'nglycosylation'
p157
(lp158
sS'chains'
p159
(lp160
sS'property_gt_value'
p161
(lp162
sS'alt_locs'
p163
(lp164
sS'contact_sel'
p165
g82
sS'property_gt_op'
p166
(lp167
sS'nothydrogen'
p168
I0
sS'buried_group'
p169
S'atom'
p170
sS'property_lt_value'
p171
(lp172
sS'as_MolDisp'
p173
g82
sS'ranges'
p174
(lp175
sS'elementtypes'
p176
(lp177
sS'neighb_excl_monomer'
p178
I0
sS'selection_scheme'
p179
g82
sS'ranges_qualifier'
p180
g82
sS'ligands'
p181
(lp182
sS'neighb_sel'
p183
g82
sS'use_all_models'
p184
I00
sS'neighb_sym'
p185
I0
sS'user_sel'
p186
g82
sg138
g93
sS'neighb_excl'
p187
I1
sS'property_lt_op'
p188
(lp189
sS'ranges_invert'
p190
I0
sS'atomtype'
p191
g82
sS'command'
p192
g93
sS'neighb_selobj'
p193
g82
sS'neighb_group'
p194
g100
sS'buried_and_selection'
p195
g82
sS'property'
p196
(lp197
sS'ranges_neighb_selection'
p198
g82
sS'oglycosylation'
p199
(lp200
ssS'params'
p201
(dp202
S'opacity'
p203
F1.0
sg49
S'48EB2901750E403895CF9803F6583FCD'
p204
sS'doCentralSymmetry'
p205
I01
sS'legend_visible'
p206
I0
sS'nbiomol'
p207
I-1
sg57
I0
sS'doSymmetry'
p208
I01
sS'customSelectionName'
p209
g82
sS'display_class'
p210
S'ribbon'
p211
sS'doBiomolecule'
p212
I00
sS'contact_MolDisp'
p213
g82
sS'label_params'
p214
(dp215
S'label_style'
p216
(lp217
I0
aI0
aI0
aI1
aI1
aI1
aI1
aI0
aI0
aI0
aI0
aI0
aI0
aI0
aI0
aI0
asS'label_user_oneperres'
p218
I1
sS'label_colour'
p219
S'complement'
p220
sS'truncate_mol_name'
p221
I0
sS'label_user_selparams'
p222
(dp223
sS'label_select'
p224
S'label_no'
p225
sS'truncate_mol_name_length'
p226
I6
sssS'styleparams'
p227
(dp228
S'style_mode'
p229
S'SPLINE'
p230
sS'inter_dispobj_bond'
p231
I1
ssba(idataobj
DispObjShadow
p232
(dp233
g79
(dp234
g81
g82
sg83
I0
sg84
(dp235
g86
g87
sg91
g92
sg94
g95
sg97
g98
sg99
g100
sg101
g102
ssg103
g82
sg104
(lp236
S'Edited scheme'
p237
asg107
g108
sg109
S'<p><span style="color:;">Atom type </span>\n</p><p><span style="color:green;">C  </span>\n<span style="color:red;">O  </span>\n<span style="color:blue;">N  </span>\n<span style="color:yellow;">S  </span>\n<span style="color:grey;">H  </span>\n<span style="color:magenta;">P  </span>\n</p>'
p238
sg111
g82
sg112
g191
sg114
(lp239
sg122
g123
ssg34
g40
sg35
g124
sg57
I0
sg125
(dp240
g127
g82
sg128
g82
sg129
g82
sg130
I0
sg131
g82
sg132
g82
sg133
g134
sg135
g136
sg137
g138
sg139
(lp241
sg141
F4.0
sg142
I1
sg143
(lp242
sg145
g82
sg146
(lp243
sg148
g102
sg149
I0
sg150
g82
sg151
(lp244
sg153
I0
sg154
(lp245
sg156
I0
sg157
(lp246
sg159
(lp247
sg161
(lp248
sg163
(lp249
sg165
g82
sg166
(lp250
sg168
I0
sg169
g170
sg171
(lp251
sg173
g82
sg174
(lp252
sg176
(lp253
sg178
I0
sg179
g82
sg180
g82
sg181
(lp254
sg183
g82
sg184
I00
sg185
I0
sg186
g82
sg138
g102
sg187
I1
sg188
(lp255
sg190
I0
sg191
g82
sg192
g102
sg193
g82
sg194
g100
sg195
g82
sg196
(lp256
sg198
g82
sg199
(lp257
ssg201
(dp258
g203
F1.0
sg49
S'8B079A2B89F240719DA1D80117560C53'
p259
sg205
I01
sg206
I0
sg207
I-1
sg57
I0
sg208
I01
sg209
g82
sg210
S'bonds'
p260
sg212
I00
sg213
g82
sg214
(dp261
g216
g217
sg218
I1
sg219
g220
sg221
I0
sg222
g223
sg224
g225
sg226
I6
sssg227
(dp262
g229
S'BONDS'
p263
sg231
I1
ssba(idataobj
DispObjShadow
p264
(dp265
g79
(dp266
g81
g82
sg83
I0
sg84
(dp267
g86
g87
sg91
g92
sg94
g95
sg97
g98
sg99
g100
sg101
g102
ssg103
g82
sg104
g236
sg107
g108
sg109
g82
sg111
g82
sg112
S'electrostatic'
p268
sg114
g239
sg122
g123
ssg34
g41
sg35
S'SurfaceDispobj'
p269
sg57
I0
sg125
(dp270
g127
g82
sg128
g82
sg129
g82
sg130
I0
sg131
g82
sg132
g82
sg133
g134
sg135
g136
sg137
g93
sg139
(lp271
sg141
F4.0
sg142
I1
sg143
(lp272
sg145
g82
sg146
(lp273
sg148
g102
sg149
I0
sg150
g82
sg151
(lp274
sg153
I0
sg154
(lp275
sg156
I0
sg157
(lp276
sg159
(lp277
sg161
(lp278
sg163
(lp279
sg165
g82
sg166
(lp280
sg168
I0
sg169
g170
sg171
(lp281
sg173
g82
sg174
(lp282
sg176
(lp283
sg178
I0
sg179
g82
sg180
g82
sg181
(lp284
sg183
g82
sg184
I00
sg185
I0
sg186
g82
sg138
g82
sg187
I1
sg188
(lp285
sg190
I0
sg191
g82
sg192
g93
sg193
g82
sg194
g100
sg195
g82
sg196
(lp286
sg198
g82
sg199
(lp287
ssg201
(dp288
g203
F1.0
sS'surface_type'
p289
S'normal'
p290
sg49
S'3FA320B9D390407CBAF0167441B66529'
p291
sg206
I0
sg57
I0
sS'surface_style'
p292
S'solid'
p293
sg209
g82
sg210
S'whole_surface'
p294
ssg227
(dp295
g127
g82
sg128
g82
sg129
g82
sg130
I0
sg131
g82
sg132
g82
sg133
g134
sg135
g136
sg137
g93
sg139
(lp296
sg141
F4.0
sg142
I1
sg143
(lp297
sg145
g82
sg146
(lp298
sg148
g102
sg149
I0
sg150
g82
sg151
(lp299
sg153
g41
sg154
(lp300
sg156
I0
sg157
(lp301
sg159
(lp302
sg161
(lp303
sg163
(lp304
sg165
g82
sg166
(lp305
sg168
I0
sg169
g170
sg171
(lp306
sg173
g82
sg174
(lp307
sg176
(lp308
sg178
I0
sg179
g82
sg180
g82
sg181
(lp309
sg183
g82
sg184
I00
sg185
I0
sg186
g82
sg138
g82
sg187
I1
sg188
(lp310
sg190
I0
sg191
g82
sg192
g93
sg193
g82
sg194
g100
sg195
g82
sg196
(lp311
sg198
g82
sg199
(lp312
ssbasbsS'plugins'
p313
(dp314
S'ShadersPlugin'
p315
(dp316
S'use_shadows'
p317
I0
sS'use_shaders'
p318
I0
sS'use_outline'
p319
I0
sS'use_ambocc'
p320
I0
ssS'Render'
p321
(dp322
S'scalebartext'
p323
I01
sS'stereo'
p324
I00
sS'save_status'
p325
I01
sS'dpi_spin'
p326
I300
sS'scaleFonts'
p327
I1
sS'stereo_sep'
p328
F0.1
sS'height_dpi_inches'
p329
F4.31
sS'height'
p330
I430
sS'stereo_angle'
p331
F6.0
sS'width'
p332
I600
sS'magnification'
p333
F1.0
sS'keepAspect'
p334
I1
sS'size_mode'
p335
S'dpi_defined'
p336
sS'scaleLines'
p337
I1
sS'stereo_mode'
p338
S'shear'
p339
sS'scaleImages'
p340
I1
sS'preview'
p341
I01
sS'transparent'
p342
I01
sS'renderParams'
p343
(dp344
S'ambocc_samples'
p345
I64
sS'save_rib'
p346
I00
sS'ambocc_scale'
p347
F1.0
sS'ambocc'
p348
I00
sS'smoothRibbons'
p349
I00
sS'raytrace'
p350
I01
ssS'width_dpi_inches'
p351
F6.0
ssS'GeometryPlugin'
p352
(dp353
S'atoms'
p354
(lp355
(lp356
asssg7
(idataobj
DataObjShadow
p357
(dp358
g34
g7
sg35
g36
sg37
(lp359
S'ampFinal07_model79MolDisp1'
p360
aS'ampFinal07_model79MolDisp2'
p361
aS'ampFinal07_model79SurfaceDispobj3'
p362
asg42
(lp363
g44
aS'C:/Users/eliez/OneDrive/Tesis y titulacion/Antimicrobial_Peptides_QSAR_Prediction_Project/PrediccionNovelPeptides/Modelamiento/07.TRVLGGTKKRRGVKLGAIKKWTLLGIRVLPQKR\\ampFinal07-model79.pdb'
p364
ag364
asg46
(dp365
g48
I1
sg49
S'2A9FC92A0D314D0EAB7A1BD69CE20BF7'
p366
sg51
S'pink'
p367
sg53
I1
sg35
g36
sg54
I1
sg55
g56
sg42
g363
sg57
I1
sg58
g59
sg60
g61
sg62
(dp368
g64
(lp369
sg66
(lp370
sg68
g69
sg70
(lp371
sg72
I1
ssg73
S'Ligand_binding_site:Site_and_ribbons_by_PDB_file'
p372
ssg57
I1
sg75
(lp373
(idataobj
DispObjShadow
p374
(dp375
g79
(dp376
g81
g82
sg83
I0
sg84
(dp377
g86
g87
sg91
g92
sg94
g95
sg97
g98
sg99
g100
sg101
g102
ssg103
g82
sg104
(lp378
g106
asg107
g108
sg109
S'<span style="color:;">User colour rules </span>\n</p><p><span style="color:red;">/*/*/(ALA,VAL,PRO,LEU,ILE </span>\n</p><p>'
p379
sg111
g82
sg112
g113
sg114
(lp380
(lp381
S'blue'
p382
ag82
aa(lp383
S'red'
p384
a(lp385
NaS'/*/*/(ALA,VAL,PRO,LEU,ILE,MET,PHE,TRP)/*:*'
p386
aaasg122
g123
ssg34
g360
sg35
g124
sg57
I0
sg125
(dp387
g127
g82
sg128
g82
sg129
g82
sg130
I0
sg131
g82
sg132
g82
sg133
g134
sg135
g136
sg137
g138
sg139
(lp388
sg141
F4.0
sg142
I1
sg143
(lp389
sg145
g82
sg146
(lp390
sg148
g102
sg149
I0
sg150
g82
sg151
(lp391
sg153
I0
sg154
(lp392
sg156
I0
sg157
(lp393
sg159
(lp394
sg161
(lp395
sg163
(lp396
sg165
g82
sg166
(lp397
sg168
I0
sg169
g170
sg171
(lp398
sg173
g82
sg174
(lp399
sg176
(lp400
sg178
I0
sg179
g82
sg180
g82
sg181
(lp401
sg183
g82
sg184
I00
sg185
I0
sg186
g82
sg138
g93
sg187
I1
sg188
(lp402
sg190
I0
sg191
g82
sg192
g93
sg193
g82
sg194
g100
sg195
g82
sg196
(lp403
sg198
g82
sg199
(lp404
ssg201
(dp405
g203
F1.0
sg49
S'A03D687B63D343B2BC4AC03AE2B560A7'
p406
sg205
I01
sg206
I0
sg207
I-1
sg57
I0
sg208
I01
sg209
g82
sg210
g211
sg212
I00
sg213
g82
sg214
(dp407
g216
g217
sg218
I1
sg219
g220
sg221
I0
sg222
g223
sg224
g225
sg226
I6
sssg227
(dp408
g229
g230
sg231
I1
ssba(idataobj
DispObjShadow
p409
(dp410
g79
(dp411
g81
g82
sg83
I0
sg84
(dp412
g86
g87
sg91
g92
sg94
g95
sg97
g98
sg99
g100
sg101
g102
ssg103
g82
sg104
g236
sg107
g108
sg109
g82
sg111
g82
sg112
g191
sg114
g239
sg122
g123
ssg34
g361
sg35
g124
sg57
I0
sg125
(dp413
g127
g82
sg128
g82
sg129
g82
sg130
I0
sg131
g82
sg132
g82
sg133
g134
sg135
g136
sg137
g138
sg139
(lp414
sg141
F4.0
sg142
I1
sg143
(lp415
sg145
g82
sg146
(lp416
sg148
g102
sg149
I0
sg150
g82
sg151
(lp417
sg153
I0
sg154
(lp418
sg156
I0
sg157
(lp419
sg159
(lp420
sg161
(lp421
sg163
(lp422
sg165
g82
sg166
(lp423
sg168
I0
sg169
g170
sg171
(lp424
sg173
g82
sg174
(lp425
sg176
(lp426
sg178
I0
sg179
g82
sg180
g82
sg181
(lp427
sg183
g82
sg184
I00
sg185
I0
sg186
g82
sg138
g102
sg187
I1
sg188
(lp428
sg190
I0
sg191
g82
sg192
g102
sg193
g82
sg194
g100
sg195
g82
sg196
(lp429
sg198
g82
sg199
(lp430
ssg201
(dp431
g203
F1.0
sg49
S'373744A6046D4C4BBE1ACDD9391E3440'
p432
sg205
I01
sg206
I0
sg207
I-1
sg57
I0
sg208
I01
sg209
g82
sg210
g260
sg212
I00
sg213
g82
sg214
(dp433
g216
g217
sg218
I1
sg219
g220
sg221
I0
sg222
g223
sg224
g225
sg226
I6
sssg227
(dp434
g229
g263
sg231
I1
ssba(idataobj
DispObjShadow
p435
(dp436
g79
(dp437
g81
g82
sg83
I0
sg84
(dp438
g86
g87
sg91
g92
sg94
g95
sg97
g98
sg99
g100
sg101
g102
ssg103
g82
sg104
g236
sg107
g108
sg109
g82
sg111
g82
sg112
g268
sg114
g239
sg122
g123
ssg34
g362
sg35
g269
sg57
I0
sg125
(dp439
g127
g82
sg128
g82
sg129
g82
sg130
I0
sg131
g82
sg132
g82
sg133
g134
sg135
g136
sg137
g93
sg139
(lp440
sg141
F4.0
sg142
I1
sg143
(lp441
sg145
g82
sg146
(lp442
sg148
g102
sg149
I0
sg150
g82
sg151
(lp443
sg153
I0
sg154
(lp444
sg156
I0
sg157
(lp445
sg159
(lp446
sg161
(lp447
sg163
(lp448
sg165
g82
sg166
(lp449
sg168
I0
sg169
g170
sg171
(lp450
sg173
g82
sg174
(lp451
sg176
(lp452
sg178
I0
sg179
g82
sg180
g82
sg181
(lp453
sg183
g82
sg184
I00
sg185
I0
sg186
g82
sg138
g82
sg187
I1
sg188
(lp454
sg190
I0
sg191
g82
sg192
g93
sg193
g82
sg194
g100
sg195
g82
sg196
(lp455
sg198
g82
sg199
(lp456
ssg201
(dp457
g203
F1.0
sg289
g290
sg49
S'008E3BB2383B4B96A92E5ACC0D178294'
p458
sg206
I0
sg57
I0
sg292
g293
sg209
g82
sg210
g294
ssg227
(dp459
g127
g82
sg128
g82
sg129
g82
sg130
I0
sg131
g82
sg132
g82
sg133
g134
sg135
g136
sg137
g93
sg139
(lp460
sg141
F4.0
sg142
I1
sg143
(lp461
sg145
g82
sg146
(lp462
sg148
g102
sg149
I0
sg150
g82
sg151
(lp463
sg153
g362
sg154
(lp464
sg156
I0
sg157
(lp465
sg159
(lp466
sg161
(lp467
sg163
(lp468
sg165
g82
sg166
(lp469
sg168
I0
sg169
g170
sg171
(lp470
sg173
g82
sg174
(lp471
sg176
(lp472
sg178
I0
sg179
g82
sg180
g82
sg181
(lp473
sg183
g82
sg184
I00
sg185
I0
sg186
g82
sg138
g82
sg187
I1
sg188
(lp474
sg190
I0
sg191
g82
sg192
g93
sg193
g82
sg194
g100
sg195
g82
sg196
(lp475
sg198
g82
sg199
(lp476
ssbasbsS'params2'
p477
(dp478
S'socket_preferences'
p479
(dp480
S'local_only'
p481
I1
sS'open_socket'
p482
I0
ssS'save_session_options'
p483
(dp484
S'backup_data_files'
p485
I0
sS'restore_data'
p486
I1
sS'interpret_old_selections'
p487
I1
sS'save_projects'
p488
I0
sS'ask_restore_data'
p489
I0
ssS'download_preferences'
p490
(dp491
S'PDBJapan_Search'
p492
S'pdbjs3.protein.osaka-u.ac.jp/xPSSS/index.html'
p493
sS'RCSB_Download_CIF'
p494
S'http://www.rcsb.org/pdb/files/PDBID.cif'
p495
sS'EBI_Download_CIF'
p496
S'https://www.ebi.ac.uk/pdbe/entry-files/download/PDBID.cif'
p497
sS'http_proxy'
p498
g82
sS'PDBJapan_Download_PDB'
p499
S'ftp://www.pdbj.org/pdb_nc/pdbPDBID.ent'
p500
sS'preferred_site'
p501
S'EBI'
p502
sS'EBI_Download_PDB'
p503
S'https://www.ebi.ac.uk/pdbe/entry-files/download/pdbPDBID.ent'
p504
sS'RCSB_Search'
p505
S'www.rcsb.org/pdb'
p506
sS'PDBJapan_Download_CIF'
p507
S'ftp://ftp.pdbj.org/mmcif/PDBID.cif.gz'
p508
sS'http_user'
p509
g82
sS'RCSB_Download_PDB'
p510
S'http://www.rcsb.org/pdb/files/PDBID.pdb'
p511
sS'http_password'
p512
g82
sS'EBI_Search'
p513
S'www.ebi.ac.uk/msd-srv/msdlite/index.html'
p514
ssS'HBond_param'
p515
(dp516
S'min_D_H_A'
p517
F90.0
sS'max_H_A'
p518
F2.5
sS'min_D_A_AA'
p519
F90.0
sS'max_D_A'
p520
F3.1
sS'max_D_A_S'
p521
F3.9
sS'min_H_A_AA'
p522
F90.0
sS'min_DD_D_A'
p523
F90.0
sS'min_D_A'
p524
F2.0
ssS'MapDispParamsManager'
p525
(dp526
S'inside_shiny'
p527
I1
sS'line_width'
p528
F1.0
sS'surface_style'
p529
S'surface_style_chickenwire'
p530
sS'contour_sigma_max'
p531
F5.0
sS'cylinder_width'
p532
F0.03
sS'dot_size'
p533
F1.0
sS'double_side'
p534
I0
sS'ncontours'
p535
I1
sS'inside_colour'
p536
S'default'
p537
sS'other_colour'
p538
S'magenta'
p539
sS'diff_pos_colour'
p540
S'green'
p541
sS'radius'
p542
F10.0
sS'dot_spacing'
p543
F0.3
sS'diff_neg_colour'
p544
S'red'
p545
sS'sampling_rate'
p546
F0.75
sS'contour_scale'
p547
S'absolute'
p548
sS'first_colour'
p549
S'blue'
p550
ssS'Surface_electro'
p551
(dp552
g174
(lp553
F0.0
aF-0.5
aF0.0
aF0.5
aF0.0
asg86
(lp554
S'red'
p555
aS'red'
p556
aS'white'
p557
aS'blue'
p558
aS'blue'
p559
asS'colour_wheel_direction'
p560
S'clockwise'
p561
sS'interpolate_mode'
p562
S'HSV'
p563
ssS'atom_label_params'
p564
(dp565
g221
I0
sS'show_number_label'
p566
I0
sg224
g225
sg226
I6
sg216
g217
ssS'SecStr_param'
p567
(dp568
S'min_helix_length'
p569
I4
sS'flagBulge'
p570
I1
ssS'geometry_preferences'
p571
(dp572
S'style'
p573
S'Line'
p574
sS'single_click_label'
p575
I1
sS'angles_dp'
p576
I1
sS'width'
p577
I4
sS'bonds_dp'
p578
I2
sS'show_angles'
p579
I0
sS'show_torsions'
p580
I0
sS'line_colour'
p581
S'red'
p582
sS'text_colour'
p583
S'default'
p584
ssS'render_quality'
p585
(dp586
S'use_vbo'
p587
I1
sS'use_ambocc'
p588
I0
sS'smooth_line'
p589
I1
sS'use_outline'
p590
I0
sS'force_use_va'
p591
I1
sS'use_shadows'
p592
I0
sS'use_shaders'
p593
I0
sS'solid_quality'
p594
I1
ssS'centre_mode'
p595
(dp596
S'centre_method'
p597
I0
ssS'screenshot_preferences'
p598
(dp599
S'offscreen'
p600
I1
sS'antialias'
p601
I1
ssS'miscell_prefs'
p602
(dp603
S'text_label_background'
p604
I0
sS'flip_text'
p605
I0
sS'fog_text'
p606
I0
sS'depth_text'
p607
I0
sS'text_label_background_colour'
p608
g98
ssS'Surface_map'
p609
(dp610
g174
(lp611
F0.0
aF-0.5
aF0.0
aF0.5
aF0.0
asg86
(lp612
S'red'
p613
aS'red'
p614
aS'white'
p615
aS'blue'
p616
aS'blue'
p617
asg560
g561
sg562
g563
ssS'ambient_occlusion_prefs'
p618
(dp619
S'ambocc_znear'
p620
F100.0
sS'ambocc_bias'
p621
F0.3
sS'ambocc_radius'
p622
F15.0
sS'ambocc_scale'
p623
F1.0
sS'ambocc_zfar'
p624
F150.0
ssS'Animation_param'
p625
(dp626
S'delay'
p627
F0.1
sS'flash_delay'
p628
F0.5
sS'update_properties'
p629
I1
ssS'model_drawing_style'
p630
(dp631
S'fat_bond_width'
p632
I4
sS'bond_width'
p633
I2
sS'thin_bond_width'
p634
I1
sS'glycoblock_interaction_dash_length'
p635
F0.36
sS'arrow_length'
p636
F2.2
sS'anisou_scale_byvdw'
p637
I0
sS'grey_ribbon_edge'
p638
I0
sS'worm_width'
p639
F0.2
sS'glycoblock_interaction_line_width'
p640
I2
sS'loop_frac'
p641
I1
sS'dashed_bond_length'
p642
F0.3
sS'dashed_bonds'
p643
I0
sS'glycoblock_interaction_cylinder_radius'
p644
F0.1
sS'glycoblock_draw_cov_protein_interactions'
p645
I1
sS'ballstick_stick'
p646
F0.1
sS'glycoblock_interaction_style'
p647
S'Dashed cylinder'
p648
sS'helix_style'
p649
I0
sS'helix_tube_diameter'
p650
F1.5
sS'sphere_radii_scale'
p651
F1.0
sS'base_block_thickness'
p652
F0.2
sS'anisou_style'
p653
S'solidaxes'
p654
sS'ball_radii_scale'
p655
F0.2
sS'deloc_ring'
p656
I0
sS'anisou_scale'
p657
F1.0
sS'flatten_loop'
p658
I0
sS'glycoblock_scale'
p659
F1.3
sS'glycoblock_interaction_colour'
p660
S'black'
p661
sS'flatten_beta'
p662
I1
sS'ribbon_width'
p663
F2.5
sS'glycoblock_stick_colour'
p664
g661
sS'nucleic_stick_width'
p665
F0.4
sS'glycoblock_label_protein_interactions'
p666
I0
sS'show_multiple_bonds'
p667
I0
sS'arrow_width'
p668
F2.2
sS'glycoblock_draw_protein_interactions'
p669
I0
sS'trace_cutoff'
p670
F4.8
sS'alpha_helix_width'
p671
F1.5
sS'pyramid_size'
p672
F0.1
sS'spline_beta_flat'
p673
I1
sS'cylinder_width'
p674
F0.2
sS'glycoblock_thickness'
p675
F0.35
sS'two_colour_ribbon'
p676
I0
sS'ribbon_style'
p677
I0
ssS'hydrophobicity_preferences'
p678
(dp679
sS'Contacts_param'
p680
(dp681
S'test_VDW_radius'
p682
I0
sS'VDW_fraction_min'
p683
F0.0
sS'simple_min_cutoff'
p684
F0.0
sS'label_VDW_radius'
p685
I0
sS'exclude_hbondable'
p686
I0
sS'simple_max_cutoff'
p687
F4.0
sS'VDW_fraction_max'
p688
F0.9
sS'test_metal_coord_distance'
p689
I1
ssS'HBond_drawing_style'
p690
(dp691
g528
I2
sS'contacts_line_style'
p692
S'lines'
p693
sS'label_mode'
p694
I0
sS'contacts_label_mode'
p695
I1
sS'contacts_line_width'
p696
I2
sS'line_style'
p697
g693
ssS'stereo_prefs'
p698
(dp699
S'stereo_mode'
p700
I1
sS'shear_sep'
p701
F0.1
sS'rot_sep'
p702
F6.0
ssS'restype'
p703
(dp704
g174
(lp705
S'*'
p706
aS'PHE'
p707
aS'TRP'
p708
aS'TYR'
p709
aS'PRO'
p710
aS'VAL'
p711
aS'ALA'
p712
aS'ILE'
p713
aS'LEU'
p714
aS'SER'
p715
aS'THR'
p716
aS'ASN'
p717
aS'GLN'
p718
aS'ARG'
p719
aS'LYS'
p720
aS'ASP'
p721
aS'GLU'
p722
aS'CYS'
p723
aS'MET'
p724
aS'GLY'
p725
aS'HIS'
p726
aS'A'
p727
aS'T'
p728
aS'G'
p729
aS'C'
p730
aS'U'
p731
aS'DA'
p732
aS'DT'
p733
aS'DG'
p734
aS'DC'
p735
aS'ADE'
p736
aS'THY'
p737
aS'GUA'
p738
aS'CYT'
p739
aS'URA'
p740
aS'BMA'
p741
aS'MAN'
p742
aS'NAG'
p743
aS'GLC'
p744
aS'BGC'
p745
aS'GCS'
p746
aS'GAL'
p747
aS'NGA'
p748
aS'MGC'
p749
aS'NG1'
p750
aS'NG6'
p751
aS'A2G'
p752
aS'6MN'
p753
aS'GLP'
p754
aS'GP4'
p755
aS'BEM'
p756
aS'KDN'
p757
aS'XLS'
p758
aS'CXY'
p759
aS'RBY'
p760
aS'TDX'
p761
aS'XYL'
p762
aS'XYS'
p763
aS'XYP'
p764
aS'FCA'
p765
aS'FCB'
p766
aS'FUC'
p767
aS'GTR'
p768
aS'ADA'
p769
aS'DGU'
p770
aS'SI3'
p771
aS'NCC'
p772
aS'NGF'
p773
aS'NGE'
p774
aS'NGC'
p775
aS'GC4'
p776
aS'GCD'
p777
aS'GCU'
p778
aS'GCV'
p779
aS'GCW'
p780
aS'IDS'
p781
aS'REL'
p782
aS'IDR'
p783
aS'SIA'
p784
asg86
(lp785
S'grey'
p786
aS'magenta'
p787
aS'magenta'
p788
aS'magenta'
p789
aS'coral'
p790
aS'coral'
p791
aS'coral'
p792
aS'coral'
p793
aS'coral'
p794
aS'cyan'
p795
aS'cyan'
p796
aS'cyan'
p797
aS'cyan'
p798
aS'blue'
p799
aS'blue'
p800
aS'red'
p801
aS'red'
p802
aS'yellow'
p803
aS'yellow'
p804
aS'white'
p805
aS'light blue'
p806
aS'red'
p807
aS'yellow'
p808
aS'green'
p809
aS'blue'
p810
aS'magenta'
p811
aS'red'
p812
aS'yellow'
p813
aS'green'
p814
aS'blue'
p815
aS'red'
p816
aS'yellow'
p817
aS'green'
p818
aS'blue'
p819
aS'magenta'
p820
aS'green'
p821
aS'green'
p822
aS'blue'
p823
aS'blue'
p824
aS'blue'
p825
aS'blue'
p826
aS'yellow'
p827
aS'yellow'
p828
aS'yellow'
p829
aS'yellow'
p830
aS'yellow'
p831
aS'yellow'
p832
aS'blue'
p833
aS'blue'
p834
aS'blue'
p835
aS'green'
p836
aS'light green'
p837
aS'coral'
p838
aS'coral'
p839
aS'coral'
p840
aS'coral'
p841
aS'coral'
p842
aS'coral'
p843
aS'coral'
p844
aS'red'
p845
aS'red'
p846
aS'red'
p847
aS'yellow'
p848
aS'yellow'
p849
aS'yellow'
p850
aS'purple'
p851
aS'purple'
p852
aS'light blue'
p853
aS'light blue'
p854
aS'light blue'
p855
aS'blue'
p856
aS'blue'
p857
aS'blue'
p858
aS'blue'
p859
aS'blue'
p860
aS'blue'
p861
aS'blue'
p862
aS'pale brown'
p863
aS'purple'
p864
asg560
S'clockwise'
p865
sg562
S'HSV'
p866
ssS'smiles_preferences'
p867
(dp868
S'niter'
p869
I200
sS'nconf'
p870
I20
ssS'surface_drawing_style'
p871
(dp872
S'inside_shiny'
p873
I1
sS'line_width'
p874
F1.0
sS'probe_radius'
p875
F1.5
sS'resolution_delta'
p876
I30
sS'dot_spacing'
p877
F0.1
sS'blend_edges'
p878
I0
sS'dot_size'
p879
F1.0
sS'double_side'
p880
I0
sS'inside_colour'
p881
S'default'
p882
sS'context_cutoff'
p883
F6.0
sS'warning_on'
p884
I1
sS'warning_limit'
p885
I1000
ssS'sequence_preferences'
p886
(dp887
S'muscle_exe'
p888
g82
sS'cobalt_dir'
p889
g82
sS'colouring_mode'
p890
I0
sS'blastdb_exe'
p891
g82
sS'cobalt_exe'
p892
g82
sS'mrbump_ccp4_dir'
p893
g82
sS'min_seq_length'
p894
I10
sS'blast_db'
p895
g82
sS'blastp_exe'
p896
g82
sS'font_size'
p897
I12
sS'blastn_exe'
p898
g82
sS'allow_remote_blast'
p899
I0
ssS'advanced_options'
p900
(dp901
S'iconized_display_table'
p902
I0
sS'super_compact_display_table'
p903
I0
sS'dockable_display_table'
p904
I1
sS'developer_mode'
p905
I0
ssS'atomtype'
p906
(dp907
g174
(lp908
g706
aS' C'
p909
aS' O'
p910
aS' N'
p911
aS' S'
p912
aS' H'
p913
aS' P'
p914
asg86
(lp915
S'grey'
p916
aS'green'
p917
aS'red'
p918
aS'blue'
p919
aS'yellow'
p920
aS'grey'
p921
aS'magenta'
p922
asg560
g865
sg562
g866
ssS'secstr'
p923
(dp924
g174
(lp925
S'No structure'
p926
aS'Beta strand'
p927
aS'Beta bulge'
p928
aS'3-turn'
p929
aS'4-turn'
p930
aS'5-turn'
p931
aS'Alpha helix'
p932
asg86
(lp933
S'grey'
p934
aS'blue'
p935
aS'blue'
p936
aS'pink'
p937
aS'tan'
p938
aS'coral'
p939
aS'red'
p940
asg560
g865
sg562
g866
ssS'SASArea_param'
p941
(dp942
S'list_selection_2'
p943
g82
sS'exclude_non_polymer'
p944
I1
sS'brick_margin'
p945
F5.0
sS'list_selection_1'
p946
S'polar_atoms'
p947
sS'limit_selection'
p948
S'amino_acid'
p949
sS'HOHrad'
p950
F1.4
sS'point_density'
p951
F1.0
sS'exclude_solvent'
p952
I1
ssS'movie_preferences'
p953
(dp954
S'show_progress'
p955
I1
sS'player_exe'
p956
S'mplayer'
p957
sS'ffmpeg_exe'
p958
S'ffmpeg'
p959
sS'mencoder_exe'
p960
S'mencoder'
p961
sS'player_command'
p962
S'-loop 0'
p963
sS'convert_command'
p964
S'-quality 100'
p965
sS'mencoder_merge_command'
p966
S'-ovc copy'
p967
sS'convert_exe'
p968
S'convert'
p969
sS'mencoder_command'
p970
S'-ovc lavc -lavcopts vcodec=msmpeg4v2:vbitrate=1800'
p971
sS'ffmpeg_command'
p972
S'-f mpeg -vcodec mpeg1video -ar 48000 -b 7000000 -ab 192000 -y'
p973
sssS'COLOUR'
p974
(lp975
(lp976
(lp977
g537
a(lp978
F1.0
aF1.0
aF1.0
aF1.0
aaa(lp979
S'ice blue'
p980
a(lp981
F0.61
aF0.69
aF1.0
aF1.0
aaa(lp982
S'gold'
p983
a(lp984
F0.7
aF0.69
aF0.24
aF1.0
aaa(lp985
S'coral'
p986
a(lp987
F1.0
aF0.5
aF0.31
aF1.0
aaa(lp988
g52
a(lp989
F0.5
aF0.5
aF0.5
aF1.0
aaa(lp990
g367
a(lp991
F1.0
aF0.57
aF1.0
aF1.0
aaa(lp992
S'sea green'
p993
a(lp994
F0.5
aF0.73
aF0.71
aF1.0
aaa(lp995
S'pale brown'
p996
a(lp997
F0.66
aF0.49
aF0.37
aF1.0
aaa(lp998
S'lilac'
p999
a(lp1000
F0.68
aF0.53
aF0.73
aF1.0
aaa(lp1001
S'lemon'
p1002
a(lp1003
F1.0
aF1.0
aF0.5
aF1.0
aaa(lp1004
S'lawn green'
p1005
a(lp1006
F0.27
aF0.61
aF0.31
aF1.0
aaa(lp1007
S'pale crimson'
p1008
a(lp1009
F0.82
aF0.24
aF0.24
aF1.0
aaa(lp1010
S'light blue'
p1011
a(lp1012
F0.25
aF0.6
aF0.88
aF1.0
aaa(lp1013
S'tan'
p1014
a(lp1015
F0.47
aF0.0
aF0.0
aF1.0
aaa(lp1016
S'light green'
p1017
a(lp1018
F0.6
aF1.0
aF0.6
aF1.0
aaa(lp1019
S'yellow'
p1020
a(lp1021
F1.0
aF1.0
aF0.0
aF1.0
aaa(lp1022
S'white'
p1023
a(lp1024
F1.0
aF1.0
aF1.0
aF1.0
aaa(lp1025
g550
a(lp1026
F0.0
aF0.0
aF1.0
aF1.0
aaa(lp1027
g545
a(lp1028
F1.0
aF0.0
aF0.0
aF1.0
aaa(lp1029
g541
a(lp1030
F0.0
aF1.0
aF0.0
aF1.0
aaa(lp1031
g539
a(lp1032
F1.0
aF0.0
aF1.0
aF1.0
aaa(lp1033
S'cyan'
p1034
a(lp1035
F0.0
aF1.0
aF0.88
aF1.0
aaa(lp1036
S'purple'
p1037
a(lp1038
F0.58
aF0.0
aF1.0
aF1.0
aaa(lp1039
S'dark purple'
p1040
a(lp1041
F0.57
aF0.13
aF0.34
aF1.0
aaa(lp1042
S'dark cyan'
p1043
a(lp1044
F0.06
aF0.58
aF0.65
aF1.0
aaa(lp1045
S'black'
p1046
a(lp1047
F0.0
aF0.0
aF0.0
aF1.0
aaa(lp1048
S'alice blue'
p1049
a(lp1050
F0.94
aF0.97
aF1.0
aF1.0
aaa(lp1051
S'antique white'
p1052
a(lp1053
F0.98
aF0.92
aF0.84
aF1.0
aaa(lp1054
S'aqua'
p1055
a(lp1056
F0.0
aF1.0
aF1.0
aF1.0
aaa(lp1057
S'aquamarine'
p1058
a(lp1059
F0.5
aF1.0
aF0.83
aF1.0
aaa(lp1060
S'azure'
p1061
a(lp1062
F0.94
aF1.0
aF1.0
aF1.0
aaa(lp1063
S'beige'
p1064
a(lp1065
F0.96
aF0.96
aF0.86
aF1.0
aaa(lp1066
S'bisque'
p1067
a(lp1068
F1.0
aF0.89
aF0.77
aF1.0
aaa(lp1069
S'blanched almond'
p1070
a(lp1071
F1.0
aF0.92
aF0.8
aF1.0
aaa(lp1072
S'blue violet'
p1073
a(lp1074
F0.54
aF0.17
aF0.89
aF1.0
aaa(lp1075
S'brown'
p1076
a(lp1077
F0.65
aF0.16
aF0.16
aF1.0
aaa(lp1078
S'burlywood'
p1079
a(lp1080
F0.87
aF0.72
aF0.53
aF1.0
aaa(lp1081
S'cadet blue'
p1082
a(lp1083
F0.37
aF0.62
aF0.63
aF1.0
aaa(lp1084
S'chartreuse'
p1085
a(lp1086
F0.5
aF1.0
aF0.0
aF1.0
aaa(lp1087
S'chocolate'
p1088
a(lp1089
F0.82
aF0.41
aF0.12
aF1.0
aaa(lp1090
S'cornflower blue'
p1091
a(lp1092
F0.39
aF0.58
aF0.93
aF1.0
aaa(lp1093
S'cornsilk'
p1094
a(lp1095
F1.0
aF0.97
aF0.86
aF1.0
aaa(lp1096
S'crimson'
p1097
a(lp1098
F0.86
aF0.08
aF0.24
aF1.0
aaa(lp1099
S'dark blue'
p1100
a(lp1101
F0.0
aF0.0
aF0.55
aF1.0
aaa(lp1102
S'dark goldenrod'
p1103
a(lp1104
F0.72
aF0.53
aF0.04
aF1.0
aaa(lp1105
S'dark gray'
p1106
a(lp1107
F0.66
aF0.66
aF0.66
aF1.0
aaa(lp1108
S'dark green'
p1109
a(lp1110
F0.0
aF0.39
aF0.0
aF1.0
aaa(lp1111
S'dark grey'
p1112
a(lp1113
F0.66
aF0.66
aF0.66
aF1.0
aaa(lp1114
S'dark khaki'
p1115
a(lp1116
F0.74
aF0.72
aF0.42
aF1.0
aaa(lp1117
S'dark magenta'
p1118
a(lp1119
F0.55
aF0.0
aF0.55
aF1.0
aaa(lp1120
S'dark olive green'
p1121
a(lp1122
F0.33
aF0.42
aF0.18
aF1.0
aaa(lp1123
S'dark orange'
p1124
a(lp1125
F1.0
aF0.55
aF0.0
aF1.0
aaa(lp1126
S'dark orchid'
p1127
a(lp1128
F0.6
aF0.2
aF0.8
aF1.0
aaa(lp1129
S'dark red'
p1130
a(lp1131
F0.55
aF0.0
aF0.0
aF1.0
aaa(lp1132
S'dark salmon'
p1133
a(lp1134
F0.91
aF0.59
aF0.48
aF1.0
aaa(lp1135
S'dark sea green'
p1136
a(lp1137
F0.56
aF0.74
aF0.56
aF1.0
aaa(lp1138
S'dark slate blue'
p1139
a(lp1140
F0.28
aF0.24
aF0.55
aF1.0
aaa(lp1141
S'dark slate gray'
p1142
a(lp1143
F0.18
aF0.31
aF0.31
aF1.0
aaa(lp1144
S'dark slate grey'
p1145
a(lp1146
F0.18
aF0.31
aF0.31
aF1.0
aaa(lp1147
S'dark turquoise'
p1148
a(lp1149
F0.0
aF0.81
aF0.82
aF1.0
aaa(lp1150
S'dark violet'
p1151
a(lp1152
F0.58
aF0.0
aF0.83
aF1.0
aaa(lp1153
S'deep pink'
p1154
a(lp1155
F1.0
aF0.08
aF0.58
aF1.0
aaa(lp1156
S'deep sky blue'
p1157
a(lp1158
F0.0
aF0.75
aF1.0
aF1.0
aaa(lp1159
S'dim gray'
p1160
a(lp1161
F0.41
aF0.41
aF0.41
aF1.0
aaa(lp1162
S'dim grey'
p1163
a(lp1164
F0.41
aF0.41
aF0.41
aF1.0
aaa(lp1165
S'dodger blue'
p1166
a(lp1167
F0.12
aF0.56
aF1.0
aF1.0
aaa(lp1168
S'firebrick'
p1169
a(lp1170
F0.7
aF0.13
aF0.13
aF1.0
aaa(lp1171
S'floral white'
p1172
a(lp1173
F1.0
aF0.98
aF0.94
aF1.0
aaa(lp1174
S'forest green'
p1175
a(lp1176
F0.13
aF0.55
aF0.13
aF1.0
aaa(lp1177
S'fuchsia'
p1178
a(lp1179
F1.0
aF0.0
aF1.0
aF1.0
aaa(lp1180
S'gainsboro'
p1181
a(lp1182
F0.86
aF0.86
aF0.86
aF1.0
aaa(lp1183
S'ghost white'
p1184
a(lp1185
F0.97
aF0.97
aF1.0
aF1.0
aaa(lp1186
S'goldenrod'
p1187
a(lp1188
F0.85
aF0.65
aF0.13
aF1.0
aaa(lp1189
S'gray'
p1190
a(lp1191
F0.75
aF0.75
aF0.75
aF1.0
aaa(lp1192
S'green yellow'
p1193
a(lp1194
F0.68
aF1.0
aF0.18
aF1.0
aaa(lp1195
S'honeydew'
p1196
a(lp1197
F0.94
aF1.0
aF0.94
aF1.0
aaa(lp1198
S'hot pink'
p1199
a(lp1200
F1.0
aF0.41
aF0.71
aF1.0
aaa(lp1201
S'indian red'
p1202
a(lp1203
F0.8
aF0.36
aF0.36
aF1.0
aaa(lp1204
S'indigo'
p1205
a(lp1206
F0.29
aF0.0
aF0.51
aF1.0
aaa(lp1207
S'ivory'
p1208
a(lp1209
F1.0
aF1.0
aF0.94
aF1.0
aaa(lp1210
S'khaki'
p1211
a(lp1212
F0.94
aF0.9
aF0.55
aF1.0
aaa(lp1213
S'lavender blush'
p1214
a(lp1215
F1.0
aF0.94
aF0.96
aF1.0
aaa(lp1216
S'lavender'
p1217
a(lp1218
F0.9
aF0.9
aF0.98
aF1.0
aaa(lp1219
S'lemon chiffon'
p1220
a(lp1221
F1.0
aF0.98
aF0.8
aF1.0
aaa(lp1222
S'light coral'
p1223
a(lp1224
F0.94
aF0.5
aF0.5
aF1.0
aaa(lp1225
S'light cyan'
p1226
a(lp1227
F0.88
aF1.0
aF1.0
aF1.0
aaa(lp1228
S'light goldenrod yellow'
p1229
a(lp1230
F0.98
aF0.98
aF0.82
aF1.0
aaa(lp1231
S'light goldenrod'
p1232
a(lp1233
F0.93
aF0.87
aF0.51
aF1.0
aaa(lp1234
S'light gray'
p1235
a(lp1236
F0.83
aF0.83
aF0.83
aF1.0
aaa(lp1237
S'light grey'
p1238
a(lp1239
F0.83
aF0.83
aF0.83
aF1.0
aaa(lp1240
S'light pink'
p1241
a(lp1242
F1.0
aF0.71
aF0.76
aF1.0
aaa(lp1243
S'light salmon'
p1244
a(lp1245
F1.0
aF0.63
aF0.48
aF1.0
aaa(lp1246
S'light sea green'
p1247
a(lp1248
F0.13
aF0.7
aF0.67
aF1.0
aaa(lp1249
S'light sky blue'
p1250
a(lp1251
F0.53
aF0.81
aF0.98
aF1.0
aaa(lp1252
S'light slate blue'
p1253
a(lp1254
F0.52
aF0.44
aF1.0
aF1.0
aaa(lp1255
S'light slate gray'
p1256
a(lp1257
F0.47
aF0.53
aF0.6
aF1.0
aaa(lp1258
S'light slate grey'
p1259
a(lp1260
F0.47
aF0.53
aF0.6
aF1.0
aaa(lp1261
S'light steel blue'
p1262
a(lp1263
F0.69
aF0.77
aF0.87
aF1.0
aaa(lp1264
S'light yellow'
p1265
a(lp1266
F1.0
aF1.0
aF0.88
aF1.0
aaa(lp1267
S'lime green'
p1268
a(lp1269
F0.2
aF0.8
aF0.2
aF1.0
aaa(lp1270
S'lime'
p1271
a(lp1272
F0.0
aF1.0
aF0.0
aF1.0
aaa(lp1273
S'linen'
p1274
a(lp1275
F0.98
aF0.94
aF0.9
aF1.0
aaa(lp1276
S'maroon'
p1277
a(lp1278
F0.69
aF0.19
aF0.38
aF1.0
aaa(lp1279
S'medium aquamarine'
p1280
a(lp1281
F0.4
aF0.8
aF0.67
aF1.0
aaa(lp1282
S'medium blue'
p1283
a(lp1284
F0.0
aF0.0
aF0.8
aF1.0
aaa(lp1285
S'medium orchid'
p1286
a(lp1287
F0.73
aF0.33
aF0.83
aF1.0
aaa(lp1288
S'medium purple'
p1289
a(lp1290
F0.58
aF0.44
aF0.86
aF1.0
aaa(lp1291
S'medium sea green'
p1292
a(lp1293
F0.24
aF0.7
aF0.44
aF1.0
aaa(lp1294
S'medium slate blue'
p1295
a(lp1296
F0.48
aF0.41
aF0.93
aF1.0
aaa(lp1297
S'medium spring green'
p1298
a(lp1299
F0.0
aF0.98
aF0.6
aF1.0
aaa(lp1300
S'medium turquoise'
p1301
a(lp1302
F0.28
aF0.82
aF0.8
aF1.0
aaa(lp1303
S'medium violet red'
p1304
a(lp1305
F0.78
aF0.08
aF0.52
aF1.0
aaa(lp1306
S'midnight blue'
p1307
a(lp1308
F0.1
aF0.1
aF0.44
aF1.0
aaa(lp1309
S'mint cream'
p1310
a(lp1311
F0.96
aF1.0
aF0.98
aF1.0
aaa(lp1312
S'misty rose'
p1313
a(lp1314
F1.0
aF0.89
aF0.88
aF1.0
aaa(lp1315
S'moccasin'
p1316
a(lp1317
F1.0
aF0.89
aF0.71
aF1.0
aaa(lp1318
S'navajo white'
p1319
a(lp1320
F1.0
aF0.87
aF0.68
aF1.0
aaa(lp1321
S'navy blue'
p1322
a(lp1323
F0.0
aF0.0
aF0.5
aF1.0
aaa(lp1324
S'navy'
p1325
a(lp1326
F0.0
aF0.0
aF0.5
aF1.0
aaa(lp1327
S'old lace'
p1328
a(lp1329
F0.99
aF0.96
aF0.9
aF1.0
aaa(lp1330
S'olive drab'
p1331
a(lp1332
F0.42
aF0.56
aF0.14
aF1.0
aaa(lp1333
S'olive'
p1334
a(lp1335
F0.5
aF0.5
aF0.0
aF1.0
aaa(lp1336
S'orange red'
p1337
a(lp1338
F1.0
aF0.27
aF0.0
aF1.0
aaa(lp1339
S'orange'
p1340
a(lp1341
F1.0
aF0.65
aF0.0
aF1.0
aaa(lp1342
S'orchid'
p1343
a(lp1344
F0.85
aF0.44
aF0.84
aF1.0
aaa(lp1345
S'pale goldenrod'
p1346
a(lp1347
F0.93
aF0.91
aF0.67
aF1.0
aaa(lp1348
S'pale green'
p1349
a(lp1350
F0.6
aF0.98
aF0.6
aF1.0
aaa(lp1351
S'pale turquoise'
p1352
a(lp1353
F0.69
aF0.93
aF0.93
aF1.0
aaa(lp1354
S'pale violet red'
p1355
a(lp1356
F0.86
aF0.44
aF0.58
aF1.0
aaa(lp1357
S'papaya whip'
p1358
a(lp1359
F1.0
aF0.94
aF0.84
aF1.0
aaa(lp1360
S'peach puff'
p1361
a(lp1362
F1.0
aF0.85
aF0.73
aF1.0
aaa(lp1363
S'peru'
p1364
a(lp1365
F0.8
aF0.52
aF0.25
aF1.0
aaa(lp1366
S'plum'
p1367
a(lp1368
F0.87
aF0.63
aF0.87
aF1.0
aaa(lp1369
S'powder blue'
p1370
a(lp1371
F0.69
aF0.88
aF0.9
aF1.0
aaa(lp1372
S'rebecca purple'
p1373
a(lp1374
F0.4
aF0.2
aF0.6
aF1.0
aaa(lp1375
S'rosy brown'
p1376
a(lp1377
F0.74
aF0.56
aF0.56
aF1.0
aaa(lp1378
S'royal blue'
p1379
a(lp1380
F0.25
aF0.41
aF0.88
aF1.0
aaa(lp1381
S'saddle brown'
p1382
a(lp1383
F0.55
aF0.27
aF0.07
aF1.0
aaa(lp1384
S'salmon'
p1385
a(lp1386
F0.98
aF0.5
aF0.45
aF1.0
aaa(lp1387
S'sandy brown'
p1388
a(lp1389
F0.96
aF0.64
aF0.38
aF1.0
aaa(lp1390
S'seashell'
p1391
a(lp1392
F1.0
aF0.96
aF0.93
aF1.0
aaa(lp1393
S'sienna'
p1394
a(lp1395
F0.63
aF0.32
aF0.18
aF1.0
aaa(lp1396
S'silver'
p1397
a(lp1398
F0.75
aF0.75
aF0.75
aF1.0
aaa(lp1399
S'sky blue'
p1400
a(lp1401
F0.53
aF0.81
aF0.92
aF1.0
aaa(lp1402
S'slate blue'
p1403
a(lp1404
F0.42
aF0.35
aF0.8
aF1.0
aaa(lp1405
S'slate gray'
p1406
a(lp1407
F0.44
aF0.5
aF0.56
aF1.0
aaa(lp1408
S'slate grey'
p1409
a(lp1410
F0.44
aF0.5
aF0.56
aF1.0
aaa(lp1411
S'snow'
p1412
a(lp1413
F1.0
aF0.98
aF0.98
aF1.0
aaa(lp1414
S'spring green'
p1415
a(lp1416
F0.0
aF1.0
aF0.5
aF1.0
aaa(lp1417
S'steel blue'
p1418
a(lp1419
F0.27
aF0.51
aF0.71
aF1.0
aaa(lp1420
S'teal'
p1421
a(lp1422
F0.0
aF0.5
aF0.5
aF1.0
aaa(lp1423
S'thistle'
p1424
a(lp1425
F0.85
aF0.75
aF0.85
aF1.0
aaa(lp1426
S'tomato'
p1427
a(lp1428
F1.0
aF0.39
aF0.28
aF1.0
aaa(lp1429
S'turquoise'
p1430
a(lp1431
F0.25
aF0.88
aF0.82
aF1.0
aaa(lp1432
S'violet red'
p1433
a(lp1434
F0.82
aF0.13
aF0.56
aF1.0
aaa(lp1435
S'violet'
p1436
a(lp1437
F0.93
aF0.51
aF0.93
aF1.0
aaa(lp1438
S'web gray'
p1439
a(lp1440
F0.5
aF0.5
aF0.5
aF1.0
aaa(lp1441
S'web green'
p1442
a(lp1443
F0.0
aF0.5
aF0.0
aF1.0
aaa(lp1444
S'web grey'
p1445
a(lp1446
F0.5
aF0.5
aF0.5
aF1.0
aaa(lp1447
S'web maroon'
p1448
a(lp1449
F0.5
aF0.0
aF0.0
aF1.0
aaa(lp1450
S'web purple'
p1451
a(lp1452
F0.5
aF0.0
aF0.5
aF1.0
aaa(lp1453
S'wheat'
p1454
a(lp1455
F0.96
aF0.87
aF0.7
aF1.0
aaa(lp1456
S'white smoke'
p1457
a(lp1458
F0.96
aF0.96
aF0.96
aF1.0
aaa(lp1459
S'x11 gray'
p1460
a(lp1461
F0.75
aF0.75
aF0.75
aF1.0
aaa(lp1462
S'x11 green'
p1463
a(lp1464
F0.0
aF1.0
aF0.0
aF1.0
aaa(lp1465
S'x11 grey'
p1466
a(lp1467
F0.75
aF0.75
aF0.75
aF1.0
aaa(lp1468
S'x11 maroon'
p1469
a(lp1470
F0.69
aF0.19
aF0.38
aF1.0
aaa(lp1471
S'x11 purple'
p1472
a(lp1473
F0.63
aF0.13
aF0.94
aF1.0
aaa(lp1474
S'yellow green'
p1475
a(lp1476
F0.6
aF0.8
aF0.2
aF1.0
aaaaI169
asg8
(idataobj
DataObjShadow
p1477
(dp1478
g34
g8
sg35
g36
sg37
(lp1479
S'ampFinal08_model1_3MolDisp1'
p1480
aS'ampFinal08_model1_3MolDisp2'
p1481
aS'ampFinal08_model1_3SurfaceDispobj3'
p1482
asg42
(lp1483
g44
aS'C:/Users/eliez/OneDrive/Tesis y titulacion/Antimicrobial_Peptides_QSAR_Prediction_Project/PrediccionNovelPeptides/Modelamiento/08.AKVRLLITRLKKKFLIGRRDK\\ampFinal08-model1.3.pdb'
p1484
ag1484
asg46
(dp1485
g48
I1
sg49
S'78A897D3AC644FD2A5053B8F5E34DE3B'
p1486
sg51
g993
sg53
I1
sg35
g36
sg54
I1
sg55
g56
sg42
g1483
sg57
I1
sg58
g59
sg60
g61
sg62
(dp1487
g64
(lp1488
sg66
(lp1489
sg68
g69
sg70
(lp1490
sg72
I1
ssg73
S'Ligand_binding_site:Site_and_ribbons_by_PDB_file'
p1491
ssg57
I1
sg75
(lp1492
(idataobj
DispObjShadow
p1493
(dp1494
g79
(dp1495
g81
g82
sg83
I0
sg84
(dp1496
g86
g87
sg91
g92
sg94
g95
sg97
g98
sg99
g100
sg101
g102
ssg103
g82
sg104
(lp1497
g106
asg107
g108
sg109
S'<span style="color:;">User colour rules </span>\n</p><p><span style="color:red;">/*/*/(ALA,VAL,PRO,LEU,ILE </span>\n</p><p>'
p1498
sg111
g82
sg112
g113
sg114
(lp1499
(lp1500
S'blue'
p1501
ag82
aa(lp1502
S'red'
p1503
a(lp1504
NaS'/*/*/(ALA,VAL,PRO,LEU,ILE,MET,PHE,TRP)/*:*'
p1505
aaasg122
g123
ssg34
g1480
sg35
g124
sg57
I0
sg125
(dp1506
g127
g82
sg128
g82
sg129
g82
sg130
I0
sg131
g82
sg132
g82
sg133
g134
sg135
g136
sg137
g138
sg139
(lp1507
sg141
F4.0
sg142
I1
sg143
(lp1508
sg145
g82
sg146
(lp1509
sg148
g102
sg149
I0
sg150
g82
sg151
(lp1510
sg153
I0
sg154
(lp1511
sg156
I0
sg157
(lp1512
sg159
(lp1513
sg161
(lp1514
sg163
(lp1515
sg165
g82
sg166
(lp1516
sg168
I0
sg169
g170
sg171
(lp1517
sg173
g82
sg174
(lp1518
sg176
(lp1519
sg178
I0
sg179
g82
sg180
g82
sg181
(lp1520
sg183
g82
sg184
I00
sg185
I0
sg186
g82
sg138
g93
sg187
I1
sg188
(lp1521
sg190
I0
sg191
g82
sg192
g93
sg193
g82
sg194
g100
sg195
g82
sg196
(lp1522
sg198
g82
sg199
(lp1523
ssg201
(dp1524
g203
F1.0
sg49
S'928712C2928B4D73B66B38C16BB51710'
p1525
sg205
I01
sg206
I0
sg207
I-1
sg57
I0
sg208
I01
sg209
g82
sg210
g211
sg212
I00
sg213
g82
sg214
(dp1526
g216
g217
sg218
I1
sg219
g220
sg221
I0
sg222
g223
sg224
g225
sg226
I6
sssg227
(dp1527
g229
g230
sg231
I1
ssba(idataobj
DispObjShadow
p1528
(dp1529
g79
(dp1530
g81
g82
sg83
I0
sg84
(dp1531
g86
g87
sg91
g92
sg94
g95
sg97
g98
sg99
g100
sg101
g102
ssg103
g82
sg104
g236
sg107
g108
sg109
g82
sg111
g82
sg112
g191
sg114
g239
sg122
g123
ssg34
g1481
sg35
g124
sg57
I0
sg125
(dp1532
g127
g82
sg128
g82
sg129
g82
sg130
I0
sg131
g82
sg132
g82
sg133
g134
sg135
g136
sg137
g138
sg139
(lp1533
sg141
F4.0
sg142
I1
sg143
(lp1534
sg145
g82
sg146
(lp1535
sg148
g102
sg149
I0
sg150
g82
sg151
(lp1536
sg153
I0
sg154
(lp1537
sg156
I0
sg157
(lp1538
sg159
(lp1539
sg161
(lp1540
sg163
(lp1541
sg165
g82
sg166
(lp1542
sg168
I0
sg169
g170
sg171
(lp1543
sg173
g82
sg174
(lp1544
sg176
(lp1545
sg178
I0
sg179
g82
sg180
g82
sg181
(lp1546
sg183
g82
sg184
I00
sg185
I0
sg186
g82
sg138
g102
sg187
I1
sg188
(lp1547
sg190
I0
sg191
g82
sg192
g102
sg193
g82
sg194
g100
sg195
g82
sg196
(lp1548
sg198
g82
sg199
(lp1549
ssg201
(dp1550
g203
F1.0
sg49
S'5BCD31CEB5484C659B1651BA0816EF0B'
p1551
sg205
I01
sg206
I0
sg207
I-1
sg57
I0
sg208
I01
sg209
g82
sg210
g260
sg212
I00
sg213
g82
sg214
(dp1552
g216
g217
sg218
I1
sg219
g220
sg221
I0
sg222
g223
sg224
g225
sg226
I6
sssg227
(dp1553
g229
g263
sg231
I1
ssba(idataobj
DispObjShadow
p1554
(dp1555
g79
(dp1556
g81
g82
sg83
I0
sg84
(dp1557
g86
g87
sg91
g92
sg94
g95
sg97
g98
sg99
g100
sg101
g102
ssg103
g82
sg104
g236
sg107
g108
sg109
g82
sg111
g82
sg112
g268
sg114
g239
sg122
g123
ssg34
g1482
sg35
g269
sg57
I0
sg125
(dp1558
g127
g82
sg128
g82
sg129
g82
sg130
I0
sg131
g82
sg132
g82
sg133
g134
sg135
g136
sg137
g93
sg139
(lp1559
sg141
F4.0
sg142
I1
sg143
(lp1560
sg145
g82
sg146
(lp1561
sg148
g102
sg149
I0
sg150
g82
sg151
(lp1562
sg153
I0
sg154
(lp1563
sg156
I0
sg157
(lp1564
sg159
(lp1565
sg161
(lp1566
sg163
(lp1567
sg165
g82
sg166
(lp1568
sg168
I0
sg169
g170
sg171
(lp1569
sg173
g82
sg174
(lp1570
sg176
(lp1571
sg178
I0
sg179
g82
sg180
g82
sg181
(lp1572
sg183
g82
sg184
I00
sg185
I0
sg186
g82
sg138
g82
sg187
I1
sg188
(lp1573
sg190
I0
sg191
g82
sg192
g93
sg193
g82
sg194
g100
sg195
g82
sg196
(lp1574
sg198
g82
sg199
(lp1575
ssg201
(dp1576
g203
F1.0
sg289
g290
sg49
S'4D98AA2485DB4EA086AC07608297C610'
p1577
sg206
I0
sg57
I0
sg292
g293
sg209
g82
sg210
g294
ssg227
(dp1578
g127
g82
sg128
g82
sg129
g82
sg130
I0
sg131
g82
sg132
g82
sg133
g134
sg135
g136
sg137
g93
sg139
(lp1579
sg141
F4.0
sg142
I1
sg143
(lp1580
sg145
g82
sg146
(lp1581
sg148
g102
sg149
I0
sg150
g82
sg151
(lp1582
sg153
g1482
sg154
(lp1583
sg156
I0
sg157
(lp1584
sg159
(lp1585
sg161
(lp1586
sg163
(lp1587
sg165
g82
sg166
(lp1588
sg168
I0
sg169
g170
sg171
(lp1589
sg173
g82
sg174
(lp1590
sg176
(lp1591
sg178
I0
sg179
g82
sg180
g82
sg181
(lp1592
sg183
g82
sg184
I00
sg185
I0
sg186
g82
sg138
g82
sg187
I1
sg188
(lp1593
sg190
I0
sg191
g82
sg192
g93
sg193
g82
sg194
g100
sg195
g82
sg196
(lp1594
sg198
g82
sg199
(lp1595
ssbasbsS'version'
p1596
g61
sg5
(idataobj
DataObjShadow
p1597
(dp1598
g34
g5
sg35
g36
sg37
(lp1599
S'ampFinal05_model153MolDisp1'
p1600
aS'ampFinal05_model153MolDisp2'
p1601
aS'ampFinal05_model153SurfaceDispobj3'
p1602
asg42
(lp1603
g44
aS'C:/Users/eliez/OneDrive/Tesis y titulacion/Antimicrobial_Peptides_QSAR_Prediction_Project/PrediccionNovelPeptides/Modelamiento/05.RLLNKPRKIKFVIIPRKPFKRKSFAIWTKLKLG\\ampFinal05-model153.pdb'
p1604
ag1604
asg46
(dp1605
g48
I1
sg49
S'EC6CA33CBF72454FAE167C5CDDE5F7A5'
p1606
sg51
g986
sg53
I1
sg35
g36
sg54
I1
sg55
g56
sg42
g1603
sg57
I1
sg58
g59
sg60
g61
sg62
(dp1607
g64
(lp1608
sg66
(lp1609
sg68
g69
sg70
(lp1610
sg72
I1
ssg73
S'Ligand_binding_site:Site_and_ribbons_by_PDB_file'
p1611
ssg57
I1
sg75
(lp1612
(idataobj
DispObjShadow
p1613
(dp1614
g79
(dp1615
g81
g82
sg83
I0
sg84
(dp1616
g86
g87
sg91
g92
sg94
g95
sg97
g98
sg99
g100
sg101
g102
ssg103
g82
sg104
g236
sg107
g108
sg109
S'<span style="color:;">User colour rules </span>\n</p><p><span style="color:red;">/*/*/(ALA,VAL,PRO,LEU,ILE </span>\n</p><p>'
p1617
sg111
g82
sg112
g113
sg114
(lp1618
(lp1619
S'blue'
p1620
ag82
aa(lp1621
S'red'
p1622
a(lp1623
NaS'/*/*/(ALA,VAL,PRO,LEU,ILE,MET,PHE,TRP)/*:*'
p1624
aaasg122
g123
ssg34
g1600
sg35
g124
sg57
I0
sg125
(dp1625
g127
g82
sg128
g82
sg129
g82
sg130
I0
sg131
g82
sg132
g82
sg133
g134
sg135
g136
sg137
g138
sg139
(lp1626
sg141
F4.0
sg142
I1
sg143
(lp1627
sg145
g82
sg146
(lp1628
sg148
g102
sg149
I0
sg150
g82
sg151
(lp1629
sg153
I0
sg154
(lp1630
sg156
I0
sg157
(lp1631
sg159
(lp1632
sg161
(lp1633
sg163
(lp1634
sg165
g82
sg166
(lp1635
sg168
I0
sg169
g170
sg171
(lp1636
sg173
g82
sg174
(lp1637
sg176
(lp1638
sg178
I0
sg179
g82
sg180
g82
sg181
(lp1639
sg183
g82
sg184
I00
sg185
I0
sg186
g82
sg138
g93
sg187
I1
sg188
(lp1640
sg190
I0
sg191
g82
sg192
g93
sg193
g82
sg194
g100
sg195
g82
sg196
(lp1641
sg198
g82
sg199
(lp1642
ssg201
(dp1643
g203
F1.0
sg49
S'51E577EF681D44919F69AC2AB60BBEB4'
p1644
sg205
I01
sg206
I0
sg207
I-1
sg57
I0
sg208
I01
sg209
g82
sg210
g211
sg212
I00
sg213
g82
sg214
(dp1645
g216
g217
sg218
I1
sg219
g220
sg221
I0
sg222
g223
sg224
g225
sg226
I6
sssg227
(dp1646
g229
g230
sg231
I1
ssba(idataobj
DispObjShadow
p1647
(dp1648
g79
(dp1649
g81
g82
sg83
I0
sg84
(dp1650
g86
g87
sg91
g92
sg94
g95
sg97
g98
sg99
g100
sg101
g102
ssg103
g82
sg104
g236
sg107
g108
sg109
g82
sg111
g82
sg112
g191
sg114
g239
sg122
g123
ssg34
g1601
sg35
g124
sg57
I0
sg125
(dp1651
g127
g82
sg128
g82
sg129
g82
sg130
I0
sg131
g82
sg132
g82
sg133
g134
sg135
g136
sg137
g138
sg139
(lp1652
sg141
F4.0
sg142
I1
sg143
(lp1653
sg145
g82
sg146
(lp1654
sg148
g102
sg149
I0
sg150
g82
sg151
(lp1655
sg153
I0
sg154
(lp1656
sg156
I0
sg157
(lp1657
sg159
(lp1658
sg161
(lp1659
sg163
(lp1660
sg165
g82
sg166
(lp1661
sg168
I0
sg169
g170
sg171
(lp1662
sg173
g82
sg174
(lp1663
sg176
(lp1664
sg178
I0
sg179
g82
sg180
g82
sg181
(lp1665
sg183
g82
sg184
I00
sg185
I0
sg186
g82
sg138
g102
sg187
I1
sg188
(lp1666
sg190
I0
sg191
g82
sg192
g102
sg193
g82
sg194
g100
sg195
g82
sg196
(lp1667
sg198
g82
sg199
(lp1668
ssg201
(dp1669
g203
F1.0
sg49
S'F432AC8199F04F95BFD0BF09504FA779'
p1670
sg205
I01
sg206
I0
sg207
I-1
sg57
I0
sg208
I01
sg209
g82
sg210
g260
sg212
I00
sg213
g82
sg214
(dp1671
g216
g217
sg218
I1
sg219
g220
sg221
I0
sg222
g223
sg224
g225
sg226
I6
sssg227
(dp1672
g229
g263
sg231
I1
ssba(idataobj
DispObjShadow
p1673
(dp1674
g79
(dp1675
g81
g82
sg83
I0
sg84
(dp1676
g86
g87
sg91
g92
sg94
g95
sg97
g98
sg99
g100
sg101
g102
ssg103
g82
sg104
g236
sg107
g108
sg109
g82
sg111
g82
sg112
g268
sg114
g239
sg122
g123
ssg34
g1602
sg35
g269
sg57
I0
sg125
(dp1677
g127
g82
sg128
g82
sg129
g82
sg130
I0
sg131
g82
sg132
g82
sg133
g134
sg135
g136
sg137
g93
sg139
(lp1678
sg141
F4.0
sg142
I1
sg143
(lp1679
sg145
g82
sg146
(lp1680
sg148
g102
sg149
I0
sg150
g82
sg151
(lp1681
sg153
I0
sg154
(lp1682
sg156
I0
sg157
(lp1683
sg159
(lp1684
sg161
(lp1685
sg163
(lp1686
sg165
g82
sg166
(lp1687
sg168
I0
sg169
g170
sg171
(lp1688
sg173
g82
sg174
(lp1689
sg176
(lp1690
sg178
I0
sg179
g82
sg180
g82
sg181
(lp1691
sg183
g82
sg184
I00
sg185
I0
sg186
g82
sg138
g82
sg187
I1
sg188
(lp1692
sg190
I0
sg191
g82
sg192
g93
sg193
g82
sg194
g100
sg195
g82
sg196
(lp1693
sg198
g82
sg199
(lp1694
ssg201
(dp1695
g203
F1.0
sg289
g290
sg49
S'31E1A4DD41954C6AB3C118A7DF5920AC'
p1696
sg206
I0
sg57
I0
sg292
g293
sg209
g82
sg210
g294
ssg227
(dp1697
g127
g82
sg128
g82
sg129
g82
sg130
I0
sg131
g82
sg132
g82
sg133
g134
sg135
g136
sg137
g93
sg139
(lp1698
sg141
F4.0
sg142
I1
sg143
(lp1699
sg145
g82
sg146
(lp1700
sg148
g102
sg149
I0
sg150
g82
sg151
(lp1701
sg153
g1602
sg154
(lp1702
sg156
I0
sg157
(lp1703
sg159
(lp1704
sg161
(lp1705
sg163
(lp1706
sg165
g82
sg166
(lp1707
sg168
I0
sg169
g170
sg171
(lp1708
sg173
g82
sg174
(lp1709
sg176
(lp1710
sg178
I0
sg179
g82
sg180
g82
sg181
(lp1711
sg183
g82
sg184
I00
sg185
I0
sg186
g82
sg138
g82
sg187
I1
sg188
(lp1712
sg190
I0
sg191
g82
sg192
g93
sg193
g82
sg194
g100
sg195
g82
sg196
(lp1713
sg198
g82
sg199
(lp1714
ssbasbsS'mouse_bindings'
p1715
(dp1716
S'translate-z'
p1717
(dp1718
S'shift'
p1719
I0
sS'alt'
p1720
I0
sS'mouse_button'
p1721
S'middle'
p1722
sS'key'
p1723
S'z'
p1724
sS'ctrl'
p1725
I0
ssS'object-rotate-xy'
p1726
(dp1727
g1719
I0
sg1720
I0
sg1721
S'left'
p1728
sg1723
S'x'
p1729
sg1725
I0
ssS'rotate-xy'
p1730
(dp1731
g1719
I0
sg1720
I0
sg1721
g1728
sg1723
S' '
p1732
sg1725
I0
ssS'object-translate-z'
p1733
(dp1734
g1719
I1
sg1720
I0
sg1721
g1722
sg1723
g1729
sg1725
I0
ssS'zoom'
p1735
(dp1736
g1719
I0
sg1720
I0
sg1721
g1722
sg1723
g1732
sg1725
I0
ssS'translate-xy'
p1737
(dp1738
g1719
I1
sg1720
I0
sg1721
g1722
sg1723
g1732
sg1725
I0
ssS'clip-width'
p1739
(dp1740
g1719
I0
sg1720
I0
sg1721
g1722
sg1723
S'c'
p1741
sg1725
I0
ssS'rotate-z'
p1742
(dp1743
g1719
I1
sg1720
I0
sg1721
g1728
sg1723
g1732
sg1725
I0
ssS'object-rotate-z'
p1744
(dp1745
g1719
I1
sg1720
I0
sg1721
g1728
sg1723
g1729
sg1725
I0
ssS'object-translate-xy'
p1746
(dp1747
g1719
I0
sg1720
I0
sg1721
g1722
sg1723
g1729
sg1725
I0
sssg9
(idataobj
DataObjShadow
p1748
(dp1749
g34
g9
sg35
g36
sg37
(lp1750
S'ampFinal09_model57MolDisp1'
p1751
aS'ampFinal09_model57MolDisp2'
p1752
aS'ampFinal09_model57SurfaceDispobj3'
p1753
asg42
(lp1754
g44
aS'C:/Users/eliez/OneDrive/Tesis y titulacion/Antimicrobial_Peptides_QSAR_Prediction_Project/PrediccionNovelPeptides/Modelamiento/09.GRIRKTFLGLVGKKWYTKRIYSKR/ampFinal09-model57.pdb'
p1755
ag1755
asg46
(dp1756
g48
I1
sg49
S'0815B466052A4D15952CC1D9F013589E'
p1757
sg51
g996
sg53
I1
sg35
g36
sg54
I1
sg55
g56
sg42
g1754
sg57
I1
sg58
g59
sg60
g61
sg62
(dp1758
g64
(lp1759
sg66
(lp1760
sg68
g69
sg70
(lp1761
sg72
I1
ssg73
S'Ligand_binding_site:Site_and_ribbons_by_PDB_file'
p1762
ssg57
I1
sg75
(lp1763
(idataobj
DispObjShadow
p1764
(dp1765
g79
(dp1766
g81
g82
sg83
I0
sg84
(dp1767
g86
g87
sg91
g92
sg94
g95
sg97
g98
sg99
g100
sg101
g102
ssg103
g82
sg104
(lp1768
g106
asg107
g108
sg109
S'<span style="color:;">User colour rules </span>\n</p><p><span style="color:red;">/*/*/(ALA,VAL,PRO,LEU,ILE </span>\n</p><p>'
p1769
sg111
g82
sg112
g113
sg114
(lp1770
(lp1771
S'blue'
p1772
ag82
aa(lp1773
S'red'
p1774
a(lp1775
NaS'/*/*/(ALA,VAL,PRO,LEU,ILE,MET,PHE,TRP)/*:*'
p1776
aaasg122
g123
ssg34
g1751
sg35
g124
sg57
I0
sg125
(dp1777
g127
g82
sg128
g82
sg129
g82
sg130
I0
sg131
g82
sg132
g82
sg133
g134
sg135
g136
sg137
g138
sg139
(lp1778
sg141
F4.0
sg142
I1
sg143
(lp1779
sg145
g82
sg146
(lp1780
sg148
g102
sg149
I0
sg150
g82
sg151
(lp1781
sg153
I0
sg154
(lp1782
sg156
I0
sg157
(lp1783
sg159
(lp1784
sg161
(lp1785
sg163
(lp1786
sg165
g82
sg166
(lp1787
sg168
I0
sg169
g170
sg171
(lp1788
sg173
g82
sg174
(lp1789
sg176
(lp1790
sg178
I0
sg179
g82
sg180
g82
sg181
(lp1791
sg183
g82
sg184
I00
sg185
I0
sg186
g82
sg138
g93
sg187
I1
sg188
(lp1792
sg190
I0
sg191
g82
sg192
g93
sg193
g82
sg194
g100
sg195
g82
sg196
(lp1793
sg198
g82
sg199
(lp1794
ssg201
(dp1795
g203
F1.0
sg49
S'324FEA17C3BB4471904ADC461D4434F6'
p1796
sg205
I01
sg206
I0
sg207
I-1
sg57
I0
sg208
I01
sg209
g82
sg210
g211
sg212
I00
sg213
g82
sg214
(dp1797
g216
g217
sg218
I1
sg219
g220
sg221
I0
sg222
g223
sg224
g225
sg226
I6
sssg227
(dp1798
g229
g230
sg231
I1
ssba(idataobj
DispObjShadow
p1799
(dp1800
g79
(dp1801
g81
g82
sg83
I0
sg84
(dp1802
g86
g87
sg91
g92
sg94
g95
sg97
g98
sg99
g100
sg101
g102
ssg103
g82
sg104
g236
sg107
g108
sg109
g82
sg111
g82
sg112
g191
sg114
g239
sg122
g123
ssg34
g1752
sg35
g124
sg57
I0
sg125
(dp1803
g127
g82
sg128
g82
sg129
g82
sg130
I0
sg131
g82
sg132
g82
sg133
g134
sg135
g136
sg137
g138
sg139
(lp1804
sg141
F4.0
sg142
I1
sg143
(lp1805
sg145
g82
sg146
(lp1806
sg148
g102
sg149
I0
sg150
g82
sg151
(lp1807
sg153
I0
sg154
(lp1808
sg156
I0
sg157
(lp1809
sg159
(lp1810
sg161
(lp1811
sg163
(lp1812
sg165
g82
sg166
(lp1813
sg168
I0
sg169
g170
sg171
(lp1814
sg173
g82
sg174
(lp1815
sg176
(lp1816
sg178
I0
sg179
g82
sg180
g82
sg181
(lp1817
sg183
g82
sg184
I00
sg185
I0
sg186
g82
sg138
g102
sg187
I1
sg188
(lp1818
sg190
I0
sg191
g82
sg192
g102
sg193
g82
sg194
g100
sg195
g82
sg196
(lp1819
sg198
g82
sg199
(lp1820
ssg201
(dp1821
g203
F1.0
sg49
S'6D0323A5B03B4F03948C81B162E561E8'
p1822
sg205
I01
sg206
I0
sg207
I-1
sg57
I0
sg208
I01
sg209
g82
sg210
g260
sg212
I00
sg213
g82
sg214
(dp1823
g216
g217
sg218
I1
sg219
g220
sg221
I0
sg222
g223
sg224
g225
sg226
I6
sssg227
(dp1824
g229
g263
sg231
I1
ssba(idataobj
DispObjShadow
p1825
(dp1826
g79
(dp1827
g81
g82
sg83
I0
sg84
(dp1828
g86
g87
sg91
g92
sg94
g95
sg97
g98
sg99
g100
sg101
g102
ssg103
g82
sg104
g236
sg107
g108
sg109
g82
sg111
g82
sg112
g268
sg114
g239
sg122
g123
ssg34
g1753
sg35
g269
sg57
I0
sg125
(dp1829
g127
g82
sg128
g82
sg129
g82
sg130
I0
sg131
g82
sg132
g82
sg133
g134
sg135
g136
sg137
g93
sg139
(lp1830
sg141
F4.0
sg142
I1
sg143
(lp1831
sg145
g82
sg146
(lp1832
sg148
g102
sg149
I0
sg150
g82
sg151
(lp1833
sg153
I0
sg154
(lp1834
sg156
I0
sg157
(lp1835
sg159
(lp1836
sg161
(lp1837
sg163
(lp1838
sg165
g82
sg166
(lp1839
sg168
I0
sg169
g170
sg171
(lp1840
sg173
g82
sg174
(lp1841
sg176
(lp1842
sg178
I0
sg179
g82
sg180
g82
sg181
(lp1843
sg183
g82
sg184
I00
sg185
I0
sg186
g82
sg138
g82
sg187
I1
sg188
(lp1844
sg190
I0
sg191
g82
sg192
g93
sg193
g82
sg194
g100
sg195
g82
sg196
(lp1845
sg198
g82
sg199
(lp1846
ssg201
(dp1847
g203
F1.0
sg289
g290
sg49
S'D81CE198B1FA4B55BFB5691B9CE8F9D9'
p1848
sg206
I0
sg57
I0
sg292
g293
sg209
g82
sg210
g294
ssg227
(dp1849
g127
g82
sg128
g82
sg129
g82
sg130
I0
sg131
g82
sg132
g82
sg133
g134
sg135
g136
sg137
g93
sg139
(lp1850
sg141
F4.0
sg142
I1
sg143
(lp1851
sg145
g82
sg146
(lp1852
sg148
g102
sg149
I0
sg150
g82
sg151
(lp1853
sg153
g1753
sg154
(lp1854
sg156
I0
sg157
(lp1855
sg159
(lp1856
sg161
(lp1857
sg163
(lp1858
sg165
g82
sg166
(lp1859
sg168
I0
sg169
g170
sg171
(lp1860
sg173
g82
sg174
(lp1861
sg176
(lp1862
sg178
I0
sg179
g82
sg180
g82
sg181
(lp1863
sg183
g82
sg184
I00
sg185
I0
sg186
g82
sg138
g82
sg187
I1
sg188
(lp1864
sg190
I0
sg191
g82
sg192
g93
sg193
g82
sg194
g100
sg195
g82
sg196
(lp1865
sg198
g82
sg199
(lp1866
ssbasbsS'picture_wizard'
p1867
(dp1868
S'recentre_after_wizard'
p1869
I1
sS'keep_display_objects'
p1870
I0
sS'recentre'
p1871
I0
sS'hide_unselected_dataobj'
p1872
I0
sS'show_wizard_choices'
p1873
I0
sS'default_drawing_style'
p1874
S'Ligand_binding_site:Site_and_ribbons_by_PDB_file'
p1875
ssg11
(idataobj
DataObjShadow
p1876
(dp1877
g34
g11
sg35
S'GL2dScreen'
p1878
sg37
(lp1879
S'Legend'
p1880
asg42
g82
sg46
(dp1881
g48
I1
sg49
S'8DEB8A53D8A44A6AB4EE71310803B5D5'
p1882
sg35
g1878
sg55
g1880
sg42
(lp1883
g82
ag82
ag82
asg57
I1
sg60
S'2.10.11'
p1884
ssg57
I1
sg75
(lp1885
(idataobj
DispObjShadow
p1886
(dp1887
g57
I1
sg35
g1880
sg201
(dp1888
g203
F1.0
sS'selection'
p1889
S'<!DOCTYPE HTML PUBLIC "-//W3C//DTD HTML 4.0//EN" "http://www.w3.org/TR/REC-html40/strict.dtd">\n<html><head><meta name="qrichtext" content="1" /><style type="text/css">\np, li { white-space: pre-wrap; }\n</style></head><body style=" font-family:\'MS Shell Dlg 2\'; font-size:8pt; font-weight:400; font-style:normal;">\n<p style=" margin-top:0px; margin-bottom:0px; margin-left:0px; margin-right:0px; -qt-block-indent:0; text-indent:0px;"><span style=" font-size:14pt; font-weight:600;">\t  NPEP494819:</span></p>\n<p style=" margin-top:0px; margin-bottom:0px; margin-left:0px; margin-right:0px; -qt-block-indent:0; text-indent:0px;"><span style=" font-size:14pt; font-weight:600;">AKIALLAPRITKKIKKFRFSAKKHFIF</span></p>\n<p style="-qt-paragraph-type:empty; margin-top:0px; margin-bottom:0px; margin-left:0px; margin-right:0px; -qt-block-indent:0; text-indent:0px; font-size:14pt; font-weight:600;"><br /></p>\n<p style="-qt-paragraph-type:empty; margin-top:0px; margin-bottom:0px; margin-left:0px; margin-right:0px; -qt-block-indent:0; text-indent:0px; font-size:14pt; font-weight:600;"><br /></p>\n<p style="-qt-paragraph-type:empty; margin-top:0px; margin-bottom:0px; margin-left:0px; margin-right:0px; -qt-block-indent:0; text-indent:0px; font-size:14pt; font-weight:600;"><br /></p>\n<p style="-qt-paragraph-type:empty; margin-top:0px; margin-bottom:0px; margin-left:0px; margin-right:0px; -qt-block-indent:0; text-indent:0px; font-size:14pt; font-weight:600;"><br /></p>\n<p style="-qt-paragraph-type:empty; margin-top:0px; margin-bottom:0px; margin-left:0px; margin-right:0px; -qt-block-indent:0; text-indent:0px;"><br /></p></body></html>'
p1890
sg49
S'E5811CC3791849078E2068568B272D9A'
p1891
sg206
I0
sg57
I1
sg209
g82
sS'position'
p1892
(lp1893
F0.3
aF0.01
asg210
g82
ssg34
g1880
sbasbsS'applications'
p1894
(dp1895
S'picture_wizard'
p1896
(dp1897
g1869
I1
sg1870
I0
sg1871
I0
sg1872
I0
sg1873
I0
sg1874
g1875
ssS'Superpose'
p1898
(dp1899
S'fixed_mask_colour'
p1900
S'blue'
p1901
sS'monomer_keep_matches'
p1902
I0
sS'apply_interactive_all'
p1903
I0
sS'close_atoms_res_cutoff'
p1904
F2.0
sS'show_mask'
p1905
I0
sS'close_atoms_cutoff'
p1906
F0.5
sS'close_atoms_initial_global'
p1907
I0
sS'show_equiv_mol'
p1908
S'model2'
p1909
sS'show_equivalents'
p1910
I0
sS'close_atoms_central_atom'
p1911
S' CA '
p1912
sS'show_distances'
p1913
I1
sS'moving_mask_colour'
p1914
S'dark purple'
p1915
sS'superposeModels'
p1916
(dp1917
S'model3'
p1918
(dp1919
S'matches'
p1920
(lp1921
sS'on'
p1922
I1
sS'MolData_name'
p1923
g1918
sS'selection'
p1924
S'all'
p1925
sS'fixed_MolData_name'
p1926
S'model1'
p1927
ssg1909
(dp1928
g1920
(lp1929
(dp1930
g1922
I1
sS'qualifier'
p1931
g82
sS'sele2'
p1932
g82
sS'sele1'
p1933
g82
sS'mode'
p1934
S'range'
p1935
sS'close'
p1936
I0
sasg1922
I1
sg1923
g1909
sg1924
S'all'
p1937
sg1926
g1927
ssg1927
(dp1938
g1920
(lp1939
sg1922
I1
sg1923
g1927
sg1924
S'all'
p1940
sg1926
g1927
ssS'model5'
p1941
(dp1942
g1920
(lp1943
sg1922
I1
sg1923
g1941
sg1924
S'all'
p1944
sg1926
g1927
ssS'model4'
p1945
(dp1946
g1920
(lp1947
sg1922
I1
sg1923
g1945
sg1924
S'all'
p1948
sg1926
g1927
sssS'selected_atoms_mode'
p1949
S'catrace'
p1950
sS'conn_colour'
p1951
S'black'
p1952
sS'fixed'
p1953
g1927
sS'method'
p1954
S'close'
p1955
sS'selected_atoms_selection'
p1956
(lp1957
S'CA'
p1958
aS'CB'
p1959
asssg10
(idataobj
DataObjShadow
p1960
(dp1961
g34
g10
sg35
g36
sg37
(lp1962
S'ampFinal10_model49_1MolDisp1'
p1963
aS'ampFinal10_model49_1MolDisp2'
p1964
aS'ampFinal10_model49_1SurfaceDispobj3'
p1965
asg42
(lp1966
g44
aS'C:/Users/eliez/OneDrive/Tesis y titulacion/Antimicrobial_Peptides_QSAR_Prediction_Project/PrediccionNovelPeptides/Modelamiento/10.AKIALLAPRITKKIKKFRFSAKKHFIF\\ampFinal10-model49.1.pdb'
p1967
ag1967
asg46
(dp1968
g48
I1
sg49
S'2D8D4F98B22041B7AAE2F9393F532ABC'
p1969
sg51
g999
sg53
I1
sg35
g36
sg54
I1
sg55
g56
sg42
g1966
sg57
I1
sg58
g59
sg60
g61
sg62
(dp1970
g64
(lp1971
sg66
(lp1972
sg68
g69
sg70
(lp1973
sg72
I1
ssg73
S'Ligand_binding_site:Site_and_ribbons_by_PDB_file'
p1974
ssg57
I1
sg75
(lp1975
(idataobj
DispObjShadow
p1976
(dp1977
g79
(dp1978
g81
g82
sg83
I0
sg84
(dp1979
g86
g87
sg91
g92
sg94
g95
sg97
g98
sg99
g100
sg101
g102
ssg103
g82
sg104
(lp1980
g106
asg107
g108
sg109
S'<span style="color:;">User colour rules </span>\n</p><p><span style="color:red;">/*/*/(ALA,VAL,PRO,LEU,ILE </span>\n</p><p>'
p1981
sg111
g82
sg112
g113
sg114
(lp1982
(lp1983
S'blue'
p1984
ag82
aa(lp1985
S'red'
p1986
a(lp1987
NaS'/*/*/(ALA,VAL,PRO,LEU,ILE,MET,PHE,TRP)/*:*'
p1988
aaasg122
g123
ssg34
g1963
sg35
g124
sg57
I1
sg125
(dp1989
g127
g82
sg128
g82
sg129
g82
sg130
I0
sg131
g82
sg132
g82
sg133
g134
sg135
g136
sg137
g138
sg139
(lp1990
sg141
F4.0
sg142
I1
sg143
(lp1991
sg145
g82
sg146
(lp1992
sg148
g102
sg149
I0
sg150
g82
sg151
(lp1993
sg153
I0
sg154
(lp1994
sg156
I0
sg157
(lp1995
sg159
(lp1996
sg161
(lp1997
sg163
(lp1998
sg165
g82
sg166
(lp1999
sg168
I0
sg169
g170
sg171
(lp2000
sg173
g82
sg174
(lp2001
sg176
(lp2002
sg178
I0
sg179
g82
sg180
g82
sg181
(lp2003
sg183
g82
sg184
I00
sg185
I0
sg186
g82
sg138
g93
sg187
I1
sg188
(lp2004
sg190
I0
sg191
g82
sg192
g93
sg193
g82
sg194
g100
sg195
g82
sg196
(lp2005
sg198
g82
sg199
(lp2006
ssg201
(dp2007
g203
F1.0
sg49
S'2857B82B4F5949AF9162ADA0CD2259A0'
p2008
sg205
I01
sg206
I0
sg207
I-1
sg57
I1
sg208
I01
sg209
g82
sg210
g211
sg212
I00
sg213
g82
sg214
(dp2009
g216
g217
sg218
I1
sg219
g220
sg221
I0
sg222
g223
sg224
g225
sg226
I6
sssg227
(dp2010
g229
g230
sg231
I1
ssba(idataobj
DispObjShadow
p2011
(dp2012
g79
(dp2013
g81
g82
sg83
I0
sg84
(dp2014
g86
g87
sg91
g92
sg94
g95
sg97
g98
sg99
g100
sg101
g102
ssg103
g82
sg104
g236
sg107
g108
sg109
g82
sg111
g82
sg112
g191
sg114
g239
sg122
g123
ssg34
g1964
sg35
g124
sg57
I0
sg125
(dp2015
g127
g82
sg128
g82
sg129
g82
sg130
I0
sg131
g82
sg132
g82
sg133
g134
sg135
g136
sg137
g138
sg139
(lp2016
sg141
F4.0
sg142
I1
sg143
(lp2017
sg145
g82
sg146
(lp2018
sg148
g102
sg149
I0
sg150
g82
sg151
(lp2019
sg153
I0
sg154
(lp2020
sg156
I0
sg157
(lp2021
sg159
(lp2022
sg161
(lp2023
sg163
(lp2024
sg165
g82
sg166
(lp2025
sg168
I0
sg169
g170
sg171
(lp2026
sg173
g82
sg174
(lp2027
sg176
(lp2028
sg178
I0
sg179
g82
sg180
g82
sg181
(lp2029
sg183
g82
sg184
I00
sg185
I0
sg186
g82
sg138
g102
sg187
I1
sg188
(lp2030
sg190
I0
sg191
g82
sg192
g102
sg193
g82
sg194
g100
sg195
g82
sg196
(lp2031
sg198
g82
sg199
(lp2032
ssg201
(dp2033
g203
F1.0
sg49
S'B2B7BB0C74B646B6B7C8B7D985207F8E'
p2034
sg205
I01
sg206
I0
sg207
I-1
sg57
I0
sg208
I01
sg209
g82
sg210
g260
sg212
I00
sg213
g82
sg214
(dp2035
g216
g217
sg218
I1
sg219
g220
sg221
I0
sg222
g223
sg224
g225
sg226
I6
sssg227
(dp2036
g229
g263
sg231
I1
ssba(idataobj
DispObjShadow
p2037
(dp2038
g79
(dp2039
g81
g82
sg83
I0
sg84
(dp2040
g86
g87
sg91
g92
sg94
g95
sg97
g98
sg99
g100
sg101
g102
ssg103
g82
sg104
g236
sg107
g108
sg109
g82
sg111
g82
sg112
g268
sg114
g239
sg122
g123
ssg34
g1965
sg35
g269
sg57
I0
sg125
(dp2041
g127
g82
sg128
g82
sg129
g82
sg130
I0
sg131
g82
sg132
g82
sg133
g134
sg135
g136
sg137
g93
sg139
(lp2042
sg141
F4.0
sg142
I1
sg143
(lp2043
sg145
g82
sg146
(lp2044
sg148
g102
sg149
I0
sg150
g82
sg151
(lp2045
sg153
I0
sg154
(lp2046
sg156
I0
sg157
(lp2047
sg159
(lp2048
sg161
(lp2049
sg163
(lp2050
sg165
g82
sg166
(lp2051
sg168
I0
sg169
g170
sg171
(lp2052
sg173
g82
sg174
(lp2053
sg176
(lp2054
sg178
I0
sg179
g82
sg180
g82
sg181
(lp2055
sg183
g82
sg184
I00
sg185
I0
sg186
g82
sg138
g82
sg187
I1
sg188
(lp2056
sg190
I0
sg191
g82
sg192
g93
sg193
g82
sg194
g100
sg195
g82
sg196
(lp2057
sg198
g82
sg199
(lp2058
ssg201
(dp2059
g203
F1.0
sg289
g290
sg49
S'AF7CB9B6049A458BB40FA15C801274F5'
p2060
sg206
I0
sg57
I0
sg292
g293
sg209
g82
sg210
g294
ssg227
(dp2061
g127
g82
sg128
g82
sg129
g82
sg130
I0
sg131
g82
sg132
g82
sg133
g134
sg135
g136
sg137
g93
sg139
(lp2062
sg141
F4.0
sg142
I1
sg143
(lp2063
sg145
g82
sg146
(lp2064
sg148
g102
sg149
I0
sg150
g82
sg151
(lp2065
sg153
g1965
sg154
(lp2066
sg156
I0
sg157
(lp2067
sg159
(lp2068
sg161
(lp2069
sg163
(lp2070
sg165
g82
sg166
(lp2071
sg168
I0
sg169
g170
sg171
(lp2072
sg173
g82
sg174
(lp2073
sg176
(lp2074
sg178
I0
sg179
g82
sg180
g82
sg181
(lp2075
sg183
g82
sg184
I00
sg185
I0
sg186
g82
sg138
g82
sg187
I1
sg188
(lp2076
sg190
I0
sg191
g82
sg192
g93
sg193
g82
sg194
g100
sg195
g82
sg196
(lp2077
sg198
g82
sg199
(lp2078
ssbasbsg3
(idataobj
DataObjShadow
p2079
(dp2080
g34
g3
sg35
g36
sg37
(lp2081
S'ampFinal03_model24MolDisp1'
p2082
aS'ampFinal03_model24MolDisp2'
p2083
aS'ampFinal03_model24SurfaceDispobj3'
p2084
asg42
(lp2085
g44
aS'C:/Users/eliez/OneDrive/Tesis y titulacion/Antimicrobial_Peptides_QSAR_Prediction_Project/PrediccionNovelPeptides/Modelamiento/03.GIRIPKATSRKRYLKKIFEKKQAFVLFRFIP\\ampFinal03-model24.pdb'
p2086
ag2086
asg46
(dp2087
g48
I1
sg49
S'CF24854287C449599A63681610477300'
p2088
sg51
g980
sg53
I1
sg35
g36
sg54
I1
sg55
g56
sg42
g2085
sg57
I1
sg58
g59
sg60
g61
sg62
(dp2089
g64
(lp2090
sg66
(lp2091
sg68
g69
sg70
(lp2092
sg72
I1
ssg73
S'Ligand_binding_site:Site_and_ribbons_by_PDB_file'
p2093
ssg57
I1
sg75
(lp2094
(idataobj
DispObjShadow
p2095
(dp2096
g79
(dp2097
g81
g82
sg83
I0
sg84
(dp2098
g86
g87
sg91
g92
sg94
g95
sg97
g98
sg99
g100
sg101
g102
ssg103
g82
sg104
(lp2099
g106
asg107
g108
sg109
S'<span style="color:;">User colour rules </span>\n</p><p><span style="color:red;">/*/*/(ALA,VAL,PRO,LEU,ILE </span>\n</p><p>'
p2100
sg111
g82
sg112
g113
sg114
(lp2101
(lp2102
S'blue'
p2103
ag82
aa(lp2104
S'red'
p2105
a(lp2106
NaS'/*/*/(ALA,VAL,PRO,LEU,ILE,MET,PHE,TRP)/*:*'
p2107
aaasg122
g123
ssg34
g2082
sg35
g124
sg57
I0
sg125
(dp2108
g127
g82
sg128
g82
sg129
g82
sg130
I0
sg131
g82
sg132
g82
sg133
g134
sg135
g136
sg137
g138
sg139
(lp2109
sg141
F4.0
sg142
I1
sg143
(lp2110
sg145
g82
sg146
(lp2111
sg148
g102
sg149
I0
sg150
g82
sg151
(lp2112
sg153
I0
sg154
(lp2113
sg156
I0
sg157
(lp2114
sg159
(lp2115
sg161
(lp2116
sg163
(lp2117
sg165
g82
sg166
(lp2118
sg168
I0
sg169
g170
sg171
(lp2119
sg173
g82
sg174
(lp2120
sg176
(lp2121
sg178
I0
sg179
g82
sg180
g82
sg181
(lp2122
sg183
g82
sg184
I00
sg185
I0
sg186
g82
sg138
g93
sg187
I1
sg188
(lp2123
sg190
I0
sg191
g82
sg192
g93
sg193
g82
sg194
g100
sg195
g82
sg196
(lp2124
sg198
g82
sg199
(lp2125
ssg201
(dp2126
g203
F1.0
sg49
S'85DD076FDB964E669E47F14FCA73AEA4'
p2127
sg205
I01
sg206
I0
sg207
I-1
sg57
I0
sg208
I01
sg209
g82
sg210
g211
sg212
I00
sg213
g82
sg214
(dp2128
g216
g217
sg218
I1
sg219
g220
sg221
I0
sg222
g223
sg224
g225
sg226
I6
sssg227
(dp2129
g229
g230
sg231
I1
ssba(idataobj
DispObjShadow
p2130
(dp2131
g79
(dp2132
g81
g82
sg83
I0
sg84
(dp2133
g86
g87
sg91
g92
sg94
g95
sg97
g98
sg99
g100
sg101
g102
ssg103
g82
sg104
g236
sg107
g108
sg109
g82
sg111
g82
sg112
g191
sg114
g239
sg122
g123
ssg34
g2083
sg35
g124
sg57
I0
sg125
(dp2134
g127
g82
sg128
g82
sg129
g82
sg130
I0
sg131
g82
sg132
g82
sg133
g134
sg135
g136
sg137
g138
sg139
(lp2135
sg141
F4.0
sg142
I1
sg143
(lp2136
sg145
g82
sg146
(lp2137
sg148
g102
sg149
I0
sg150
g82
sg151
(lp2138
sg153
I0
sg154
(lp2139
sg156
I0
sg157
(lp2140
sg159
(lp2141
sg161
(lp2142
sg163
(lp2143
sg165
g82
sg166
(lp2144
sg168
I0
sg169
g170
sg171
(lp2145
sg173
g82
sg174
(lp2146
sg176
(lp2147
sg178
I0
sg179
g82
sg180
g82
sg181
(lp2148
sg183
g82
sg184
I00
sg185
I0
sg186
g82
sg138
g102
sg187
I1
sg188
(lp2149
sg190
I0
sg191
g82
sg192
g102
sg193
g82
sg194
g100
sg195
g82
sg196
(lp2150
sg198
g82
sg199
(lp2151
ssg201
(dp2152
g203
F1.0
sg49
S'C84A0295517D4EB39294A3A17E252B18'
p2153
sg205
I01
sg206
I0
sg207
I-1
sg57
I0
sg208
I01
sg209
g82
sg210
g260
sg212
I00
sg213
g82
sg214
(dp2154
g216
g217
sg218
I1
sg219
g220
sg221
I0
sg222
g223
sg224
g225
sg226
I6
sssg227
(dp2155
g229
g263
sg231
I1
ssba(idataobj
DispObjShadow
p2156
(dp2157
g79
(dp2158
g81
g82
sg83
I0
sg84
(dp2159
g86
g87
sg91
g92
sg94
g95
sg97
g98
sg99
g100
sg101
g102
ssg103
g82
sg104
g236
sg107
g108
sg109
g82
sg111
g82
sg112
g268
sg114
g239
sg122
g123
ssg34
g2084
sg35
g269
sg57
I0
sg125
(dp2160
g127
g82
sg128
g82
sg129
g82
sg130
I0
sg131
g82
sg132
g82
sg133
g134
sg135
g136
sg137
g93
sg139
(lp2161
sg141
F4.0
sg142
I1
sg143
(lp2162
sg145
g82
sg146
(lp2163
sg148
g102
sg149
I0
sg150
g82
sg151
(lp2164
sg153
I0
sg154
(lp2165
sg156
I0
sg157
(lp2166
sg159
(lp2167
sg161
(lp2168
sg163
(lp2169
sg165
g82
sg166
(lp2170
sg168
I0
sg169
g170
sg171
(lp2171
sg173
g82
sg174
(lp2172
sg176
(lp2173
sg178
I0
sg179
g82
sg180
g82
sg181
(lp2174
sg183
g82
sg184
I00
sg185
I0
sg186
g82
sg138
g82
sg187
I1
sg188
(lp2175
sg190
I0
sg191
g82
sg192
g93
sg193
g82
sg194
g100
sg195
g82
sg196
(lp2176
sg198
g82
sg199
(lp2177
ssg201
(dp2178
g203
F1.0
sg289
g290
sg49
S'F92EB1B8641745F7BFD6B769C3FF4403'
p2179
sg206
I0
sg57
I0
sg292
g293
sg209
g82
sg210
g294
ssg227
(dp2180
g127
g82
sg128
g82
sg129
g82
sg130
I0
sg131
g82
sg132
g82
sg133
g134
sg135
g136
sg137
g93
sg139
(lp2181
sg141
F4.0
sg142
I1
sg143
(lp2182
sg145
g82
sg146
(lp2183
sg148
g102
sg149
I0
sg150
g82
sg151
(lp2184
sg153
g2084
sg154
(lp2185
sg156
I0
sg157
(lp2186
sg159
(lp2187
sg161
(lp2188
sg163
(lp2189
sg165
g82
sg166
(lp2190
sg168
I0
sg169
g170
sg171
(lp2191
sg173
g82
sg174
(lp2192
sg176
(lp2193
sg178
I0
sg179
g82
sg180
g82
sg181
(lp2194
sg183
g82
sg184
I00
sg185
I0
sg186
g82
sg138
g82
sg187
I1
sg188
(lp2195
sg190
I0
sg191
g82
sg192
g93
sg193
g82
sg194
g100
sg195
g82
sg196
(lp2196
sg198
g82
sg199
(lp2197
ssbasbsS'ModelInfo'
p2198
(dp2199
S'user_file'
p2200
(dp2201
S'generic'
p2202
(lp2203
S'dotCCP4MG'
p2204
aS'generic.ccp4mg'
p2205
aS'C:\\Users\\eliez\\CCP4MG2\\generic.ccp4mg'
p2206
asssS'gui_params'
p2207
(dp2208
S'background_colour'
p2209
(lp2210
I255
aI255
aI255
asS'defaultObjBodyVisibility'
p2211
S'open_all'
p2212
sS'main_toolbar'
p2213
(dp2214
S'toolbar_icon_size'
p2215
S'medium'
p2216
sS'toolbar_loaded_actions'
p2217
(lp2218
S'open'
p2219
aS'download'
p2220
aS'save_status_to_file'
p2221
aS'screenshot'
p2222
aS'view_back'
p2223
aS'view_forward'
p2224
aS'display_back'
p2225
aS'display_forward'
p2226
aS'recentre'
p2227
aS'centreOn'
p2228
aS'clearLabels'
p2229
aS'fog_on'
p2230
aS'slab_on'
p2231
aS'superpose'
p2232
aS'open_movie'
p2233
aS'new_movie'
p2234
aS'preferences'
p2235
aS'picture_wizard'
p2236
aS'PDB search'
p2237
aS'Geometry'
p2238
aS'Glycan viewer'
p2239
aS'Download electron density'
p2240
aS'Pisa structure analysis'
p2241
aS'ProSMART analysis'
p2242
aS'Sequence viewer'
p2243
aS'Simpler Display Table'
p2244
asS'toolbar_style'
p2245
S'icon_only'
p2246
ssS'last_directory'
p2247
S'C:/Users/eliez/OneDrive/Tesis y titulacion/Antimicrobial_Peptides_QSAR_Prediction_Project/PrediccionNovelPeptides/Modelamiento/10.AKIALLAPRITKKIKKFRFSAKKHFIF'
p2248
sS'rockParams'
p2249
(dp2250
S'rollorientation'
p2251
S'y'
p2252
sS'rollspeed'
p2253
F0.5
sS'rockspeed'
p2254
F0.5
sS'rockangle'
p2255
I20
ssS'show_scale'
p2256
I0
sS'centre_mode'
p2257
I0
sS'show_axes'
p2258
I0
ssS'AllModelInfo'
p2259
(dp2260
g7
(iModelInfo
ModInfo
p2261
(dp2262
S'ccp4mg_version'
p2263
g61
sS'pdbfile'
p2264
g364
sbsg6
(iModelInfo
ModInfo
p2265
(dp2266
g2263
g61
sg2264
g45
sbsg4
(iModelInfo
ModInfo
p2267
(dp2268
g2263
g61
sS'user_colour_schemes'
p2269
(dp2270
S'hidropall'
p2271
(lp2272
(lp2273
S'blue'
p2274
ag82
aa(lp2275
S'red'
p2276
a(lp2277
NaS'/*/*/(ALA,VAL,PRO,LEU,ILE,MET,PHE,TRP)/*:*'
p2278
aaassg2264
S'C:/Users/eliez/OneDrive/Tesis y titulacion/Antimicrobial_Peptides_QSAR_Prediction_Project/PrediccionNovelPeptides/Modelamiento/04.LFILNRAKRPKKSKIGLPRKITK\\ampFinal04-model43.pdb'
p2279
sbsg8
(iModelInfo
ModInfo
p2280
(dp2281
g2263
g61
sg2264
g1484
sbsg10
(iModelInfo
ModInfo
p2282
(dp2283
g2263
g61
sg2264
g1967
sbsg3
(iModelInfo
ModInfo
p2284
(dp2285
g2263
g61
sg2269
(dp2286
S'hidrop'
p2287
(lp2288
(lp2289
S'blue'
p2290
ag82
aa(lp2291
S'red'
p2292
a(lp2293
NaS'/*/*/(ALA,VAL,PRO,LEU,ILE,MET,PHE,TRP)/*:*'
p2294
aaassg2264
g2086
sbsg5
(iModelInfo
ModInfo
p2295
(dp2296
g2263
g61
sg2264
g1604
sbsg9
(iModelInfo
ModInfo
p2297
(dp2298
g2263
g61
sg2264
g1755
sbssS'light'
p2299
(dp2300
I0
(dp2301
g1892
(F0.0
F0.0
F60.0
tp2302
sS'on'
p2303
I1
sS'specular'
p2304
(F1.0
F1.0
F1.0
tp2305
sS'diffuse'
p2306
(F1.0
F1.0
F1.0
tp2307
sS'ambient'
p2308
(F0.0
F0.0
F0.0
tp2309
ssS'nLights'
p2310
I1
ssS'fonts'
p2311
(dp2312
S'atom_label'
p2313
(dp2314
S'size'
p2315
I13
sS'underline'
p2316
I0
sS'weight'
p2317
S'normal'
p2318
sS'family'
p2319
csip
_unpickle_type
p2320
(S'PyQt4.QtCore'
p2321
S'QString'
p2322
(VMS Shell Dlg 2
p2323
tp2324
tp2325
Rp2326
sS'slant'
p2327
S'r'
p2328
ssS'applicationFont'
p2329
(dp2330
g2315
I8
sg2316
I0
sg2317
g2318
sg2319
g2320
(g2321
S'QString'
p2331
(VMS Shell Dlg 2
p2332
tp2333
tp2334
Rp2335
sg2327
g2328
ssS'annotation'
p2336
(dp2337
g2315
I18
sg2316
I0
sg2317
g2318
sg2319
g2320
(g2321
S'QString'
p2338
(VMS Shell Dlg 2
p2339
tp2340
tp2341
Rp2342
sg2327
g2328
ssS'pick_atom_label'
p2343
(dp2344
g2315
I13
sg2316
I0
sg2317
g2318
sg2319
g2320
(g2321
S'QString'
p2345
(VMS Shell Dlg 2
p2346
tp2347
tp2348
Rp2349
sg2327
g2328
ssS'legend'
p2350
(dp2351
g2315
I32
sg2316
I0
sg2317
g2318
sg2319
g2320
(g2321
S'QString'
p2352
(VMS Shell Dlg 2
p2353
tp2354
tp2355
Rp2356
sg2327
g2328
sssg4
(idataobj
DataObjShadow
p2357
(dp2358
g34
g4
sg35
g36
sg37
(lp2359
S'ampFinal04_model43MolDisp1'
p2360
aS'ampFinal04_model43MolDisp2'
p2361
aS'ampFinal04_model43SurfaceDispobj3'
p2362
asg42
(lp2363
g44
ag2279
ag2279
asg46
(dp2364
g48
I1
sg49
S'51127013626E4367BAE56C62F03ACA78'
p2365
sg51
g983
sg53
I1
sg35
g36
sg54
I1
sg55
g56
sg42
g2363
sg57
I1
sg58
g59
sg60
g61
sg62
(dp2366
g64
(lp2367
sg66
(lp2368
sg68
g69
sg70
(lp2369
sg72
I1
ssg73
S'Ligand_binding_site:Site_and_ribbons_by_PDB_file'
p2370
ssg57
I1
sg75
(lp2371
(idataobj
DispObjShadow
p2372
(dp2373
g79
(dp2374
g81
g82
sg83
I0
sg84
(dp2375
g86
g87
sg91
g92
sg94
g95
sg97
g98
sg99
g100
sg101
g102
ssg103
g82
sg104
(lp2376
S'hidropall'
p2377
aS'ampFinal04_model43'
p2378
asg107
g108
sg109
S'<span style="color:;">User colour rules </span>\n</p><p><span style="color:red;">/*/*/(ALA,VAL,PRO,LEU,ILE </span>\n</p><p>'
p2379
sg111
g82
sg112
g113
sg114
g2272
sg122
g123
ssg34
g2360
sg35
g124
sg57
I0
sg125
(dp2380
g127
g82
sg128
g82
sg129
g82
sg130
I0
sg131
g82
sg132
g82
sg133
g134
sg135
g136
sg137
g138
sg139
(lp2381
sg141
F4.0
sg142
I1
sg143
(lp2382
sg145
g82
sg146
(lp2383
sg148
g102
sg149
I0
sg150
g82
sg151
(lp2384
sg153
I0
sg154
(lp2385
sg156
I0
sg157
(lp2386
sg159
(lp2387
sg161
(lp2388
sg163
(lp2389
sg165
g82
sg166
(lp2390
sg168
I0
sg169
g170
sg171
(lp2391
sg173
g82
sg174
(lp2392
sg176
(lp2393
sg178
I0
sg179
g82
sg180
g82
sg181
(lp2394
sg183
g82
sg184
I00
sg185
I0
sg186
g82
sg138
g93
sg187
I1
sg188
(lp2395
sg190
I0
sg191
g82
sg192
g93
sg193
g82
sg194
g100
sg195
g82
sg196
(lp2396
sg198
g82
sg199
(lp2397
ssg201
(dp2398
g203
F1.0
sg49
S'B9DDC050A091435A83288D204F4A746A'
p2399
sg205
I01
sg206
I0
sg207
I-1
sg57
I0
sg208
I01
sg209
g82
sg210
g211
sg212
I00
sg213
g82
sg214
(dp2400
g216
g217
sg218
I1
sg219
g220
sg221
I0
sg222
g223
sg224
g225
sg226
I6
sssg227
(dp2401
g229
g230
sg231
I1
ssba(idataobj
DispObjShadow
p2402
(dp2403
g79
(dp2404
g81
g82
sg83
I0
sg84
(dp2405
g86
g87
sg91
g92
sg94
g95
sg97
g98
sg99
g100
sg101
g102
ssg103
g82
sg104
g236
sg107
g108
sg109
g82
sg111
g82
sg112
g191
sg114
g239
sg122
g123
ssg34
g2361
sg35
g124
sg57
I0
sg125
(dp2406
g127
g82
sg128
g82
sg129
g82
sg130
I0
sg131
g82
sg132
g82
sg133
g134
sg135
g136
sg137
g138
sg139
(lp2407
sg141
F4.0
sg142
I1
sg143
(lp2408
sg145
g82
sg146
(lp2409
sg148
g102
sg149
I0
sg150
g82
sg151
(lp2410
sg153
I0
sg154
(lp2411
sg156
I0
sg157
(lp2412
sg159
(lp2413
sg161
(lp2414
sg163
(lp2415
sg165
g82
sg166
(lp2416
sg168
I0
sg169
g170
sg171
(lp2417
sg173
g82
sg174
(lp2418
sg176
(lp2419
sg178
I0
sg179
g82
sg180
g82
sg181
(lp2420
sg183
g82
sg184
I00
sg185
I0
sg186
g82
sg138
g102
sg187
I1
sg188
(lp2421
sg190
I0
sg191
g82
sg192
g102
sg193
g82
sg194
g100
sg195
g82
sg196
(lp2422
sg198
g82
sg199
(lp2423
ssg201
(dp2424
g203
F1.0
sg49
S'D04E5CBD360D472F97A23CEBD7F290FF'
p2425
sg205
I01
sg206
I0
sg207
I-1
sg57
I0
sg208
I01
sg209
g82
sg210
g260
sg212
I00
sg213
g82
sg214
(dp2426
g216
g217
sg218
I1
sg219
g220
sg221
I0
sg222
g223
sg224
g225
sg226
I6
sssg227
(dp2427
g229
g263
sg231
I1
ssba(idataobj
DispObjShadow
p2428
(dp2429
g79
(dp2430
g81
g82
sg83
I0
sg84
(dp2431
g86
g87
sg91
g92
sg94
g95
sg97
g98
sg99
g100
sg101
g102
ssg103
g82
sg104
g236
sg107
g108
sg109
g82
sg111
g82
sg112
g268
sg114
g239
sg122
g123
ssg34
g2362
sg35
g269
sg57
I0
sg125
(dp2432
g127
g82
sg128
g82
sg129
g82
sg130
I0
sg131
g82
sg132
g82
sg133
g134
sg135
g136
sg137
g93
sg139
(lp2433
sg141
F4.0
sg142
I1
sg143
(lp2434
sg145
g82
sg146
(lp2435
sg148
g102
sg149
I0
sg150
g82
sg151
(lp2436
sg153
I0
sg154
(lp2437
sg156
I0
sg157
(lp2438
sg159
(lp2439
sg161
(lp2440
sg163
(lp2441
sg165
g82
sg166
(lp2442
sg168
I0
sg169
g170
sg171
(lp2443
sg173
g82
sg174
(lp2444
sg176
(lp2445
sg178
I0
sg179
g82
sg180
g82
sg181
(lp2446
sg183
g82
sg184
I00
sg185
I0
sg186
g82
sg138
g82
sg187
I1
sg188
(lp2447
sg190
I0
sg191
g82
sg192
g93
sg193
g82
sg194
g100
sg195
g82
sg196
(lp2448
sg198
g82
sg199
(lp2449
ssg201
(dp2450
g203
F1.0
sg289
g290
sg49
S'8685766C6C1F494CBC8DA2FF522A50ED'
p2451
sg206
I0
sg57
I0
sg292
g293
sg209
g82
sg210
g294
ssg227
(dp2452
g127
g82
sg128
g82
sg129
g82
sg130
I0
sg131
g82
sg132
g82
sg133
g134
sg135
g136
sg137
g93
sg139
(lp2453
sg141
F4.0
sg142
I1
sg143
(lp2454
sg145
g82
sg146
(lp2455
sg148
g102
sg149
I0
sg150
g82
sg151
(lp2456
sg153
g2362
sg154
(lp2457
sg156
I0
sg157
(lp2458
sg159
(lp2459
sg161
(lp2460
sg163
(lp2461
sg165
g82
sg166
(lp2462
sg168
I0
sg169
g170
sg171
(lp2463
sg173
g82
sg174
(lp2464
sg176
(lp2465
sg178
I0
sg179
g82
sg180
g82
sg181
(lp2466
sg183
g82
sg184
I00
sg185
I0
sg186
g82
sg138
g82
sg187
I1
sg188
(lp2467
sg190
I0
sg191
g82
sg192
g93
sg193
g82
sg194
g100
sg195
g82
sg196
(lp2468
sg198
g82
sg199
(lp2469
ssbasbsS'pick_labels'
p2470
(dp2471
S'max_labels'
p2472
I20
sg221
I0
sg226
I6
sg216
(lp2473
I0
aI0
aI0
aI1
aI1
aI1
aI1
aI0
aI0
aI0
aI0
aI0
aI0
aI0
aI0
aI0
assS'file_viewer'
p2474
(dp2475
S'supported_plugins'
p2476
(dp2477
ssS'windowGeometry'
p2478
g2320
(g2321
S'QByteArray'
p2479
(S'\x01\xd9\xd0\xcb\x00\x01\x00\x00\xff\xff\xff\xf7\xff\xff\xff\xf7\x00\x00\x07\x88\x00\x00\x04\x04\x00\x00\x00=\x00\x00\x00?\x00\x00\x06i\x00\x00\x03\xc0\x00\x00\x00\x00\x02\x00'
p2480
tp2481
tp2482
Rp2483
s.