(dp0
S'Legends&Images'
p1
(idataobj
DataObjShadow
p2
(dp3
S'name'
p4
g1
sS'object_type'
p5
S'GL2dScreen'
p6
sS'objnames'
p7
(lp8
S'Legend'
p9
asS'filename'
p10
S''
p11
sS'dataparams'
p12
(dp13
S'expanded'
p14
I1
sS'uuid'
p15
S'8DEB8A53D8A44A6AB4EE71310803B5D5'
p16
sg5
g6
sS'module'
p17
g9
sg10
(lp18
g11
ag11
ag11
asS'visible'
p19
I1
sS'ccp4mg_creator_version'
p20
S'2.10.11'
p21
ssg19
I1
sS'objinsts'
p22
(lp23
(idataobj
DispObjShadow
p24
(dp25
g19
I1
sg5
g9
sS'params'
p26
(dp27
S'opacity'
p28
F1.0
sS'selection'
p29
S'<!DOCTYPE HTML PUBLIC "-//W3C//DTD HTML 4.0//EN" "http://www.w3.org/TR/REC-html40/strict.dtd">\n<html><head><meta name="qrichtext" content="1" /><style type="text/css">\np, li { white-space: pre-wrap; }\n</style></head><body style=" font-family:\'MS Shell Dlg 2\'; font-size:8pt; font-weight:400; font-style:normal;">\n<p style=" margin-top:0px; margin-bottom:0px; margin-left:0px; margin-right:0px; -qt-block-indent:0; text-indent:0px;"><span style=" font-size:14pt; font-weight:600;">\t        NPEP411179:</span></p>\n<p style=" margin-top:0px; margin-bottom:0px; margin-left:0px; margin-right:0px; -qt-block-indent:0; text-indent:0px;"><span style=" font-size:14pt; font-weight:600;">GIRIPKATSRKRYLKKIFEKKQAFVLFRFIP</span></p>\n<p style="-qt-paragraph-type:empty; margin-top:0px; margin-bottom:0px; margin-left:0px; margin-right:0px; -qt-block-indent:0; text-indent:0px;"><br /></p></body></html>'
p30
sg15
S'E5811CC3791849078E2068568B272D9A'
p31
sS'legend_visible'
p32
I0
sg19
I1
sS'customSelectionName'
p33
g11
sS'position'
p34
(lp35
F0.3
aF0.01
asS'display_class'
p36
g11
ssg4
g9
sbasbsS'ampFinal03_model24'
p37
(idataobj
DataObjShadow
p38
(dp39
g4
g37
sg5
S'MolData'
p40
sg7
(lp41
S'ampFinal03_model24MolDisp1'
p42
aS'ampFinal03_model24MolDisp2'
p43
aS'ampFinal03_model24SurfaceDispobj3'
p44
asg10
(lp45
S'FULLPATH'
p46
aS'C:/Users/eliez/OneDrive/Tesis y titulacion/Antimicrobial_Peptides_QSAR_Prediction_Project/PrediccionNovelPeptides/Modelamiento/03.GIRIPKATSRKRYLKKIFEKKQAFVLFRFIP\\ampFinal03-model24.pdb'
p47
ag47
asg12
(dp48
g14
I1
sg15
S'CF24854287C449599A63681610477300'
p49
sS'mol_colour'
p50
S'ice blue'
p51
sS'check_graphs'
p52
I1
sg5
g40
sS'show_aromatic_rings'
p53
I1
sg17
S'model'
p54
sg10
g45
sg19
I1
sS'customResCIFFiles'
p55
(dp56
sg20
S'2.10.11'
p57
sS'model_symmetry'
p58
(dp59
S'symmetry_visible'
p60
(lp61
sS'symmetry_colours'
p62
(lp63
sS'MolDisp_selection'
p64
S'all atoms'
p65
sS'symmetry_MolDisp_objects'
p66
(lp67
sS'MolDisp_visible'
p68
I1
ssS'lastWizardRun'
p69
S'Ligand_binding_site:Site_and_ribbons_by_PDB_file'
p70
ssg19
I1
sg22
(lp71
(idataobj
DispObjShadow
p72
(dp73
S'colparams'
p74
(dp75
S'interface_MolData_name'
p76
g11
sS'non_C_atomtype'
p77
I0
sS'colour_blend'
p78
(dp79
S'colours'
p80
(lp81
(lp82
S'blue'
p83
aS'red'
p84
aasS'selection_command'
p85
(lp86
S'peptide'
p87
asS'direction'
p88
(lp89
S'anti-clockwise'
p90
asS'default_colour'
p91
S'white'
p92
sS'group'
p93
S'residue'
p94
sS'type'
p95
S'all'
p96
ssS'one_colour'
p97
g11
sS'user_scheme'
p98
(lp99
S'Edited scheme'
p100
asS'stick_colour'
p101
S'ATOM'
p102
sS'colour_legend'
p103
S'<span style="color:;">User colour rules </span>\n</p><p><span style="color:red;">/*/*/(ALA,VAL,PRO,LEU,ILE </span>\n</p><p>'
p104
sS'interface_selection'
p105
g11
sS'colour_mode'
p106
S'rules'
p107
sS'colour_rules'
p108
(lp109
(lp110
S'blue'
p111
ag11
aa(lp112
S'red'
p113
a(lp114
NaS'/*/*/(ALA,VAL,PRO,LEU,ILE,MET,PHE,TRP)/*:*'
p115
aaasS'interface_style'
p116
S'RESIDUE'
p117
ssg4
g42
sg5
S'MolDisp'
p118
sg19
I1
sS'selparams'
p119
(dp120
S'features'
p121
g11
sS'symid'
p122
g11
sS'neighb_mol'
p123
g11
sS'ranges_neighb_invert'
p124
I0
sS'buried_sel'
p125
g11
sS'contact_mol'
p126
g11
sS'property_join'
p127
S'and'
p128
sS'neighb_rad'
p129
S'4.0'
p130
sS'select'
p131
S'cid'
p132
sS'restypes'
p133
(lp134
sS'ranges_neighb_cutoff'
p135
F4.0
sS'ranges_extend'
p136
I1
sS'nmr_models'
p137
(lp138
sS'ranges_neighb_model'
p139
g11
sS'sites'
p140
(lp141
sS'ranges_neighb_qualifier'
p142
g96
sS'neighb_excl_solvent'
p143
I0
sS'buried_mol'
p144
g11
sS'entities'
p145
(lp146
sS'same_as'
p147
I0
sS'secstr'
p148
(lp149
sS'neighb_hb'
p150
I0
sS'nglycosylation'
p151
(lp152
sS'chains'
p153
(lp154
sS'property_gt_value'
p155
(lp156
sS'alt_locs'
p157
(lp158
sS'contact_sel'
p159
g11
sS'property_gt_op'
p160
(lp161
sS'nothydrogen'
p162
I0
sS'buried_group'
p163
S'atom'
p164
sS'property_lt_value'
p165
(lp166
sS'as_MolDisp'
p167
g11
sS'ranges'
p168
(lp169
sS'elementtypes'
p170
(lp171
sS'neighb_excl_monomer'
p172
I0
sS'selection_scheme'
p173
g11
sS'ranges_qualifier'
p174
g11
sS'ligands'
p175
(lp176
sS'neighb_sel'
p177
g11
sS'use_all_models'
p178
I00
sS'neighb_sym'
p179
I0
sS'user_sel'
p180
g11
sg132
g87
sS'neighb_excl'
p181
I1
sS'property_lt_op'
p182
(lp183
sS'ranges_invert'
p184
I0
sS'atomtype'
p185
g11
sS'command'
p186
g87
sS'neighb_selobj'
p187
g11
sS'neighb_group'
p188
g94
sS'buried_and_selection'
p189
g11
sS'property'
p190
(lp191
sS'ranges_neighb_selection'
p192
g11
sS'oglycosylation'
p193
(lp194
ssg26
(dp195
g28
F1.0
sg15
S'85DD076FDB964E669E47F14FCA73AEA4'
p196
sS'doCentralSymmetry'
p197
I01
sg32
I0
sS'nbiomol'
p198
I-1
sg19
I1
sS'doSymmetry'
p199
I01
sg33
g11
sg36
S'ribbon'
p200
sS'doBiomolecule'
p201
I00
sS'contact_MolDisp'
p202
g11
sS'label_params'
p203
(dp204
S'label_style'
p205
(lp206
I0
aI0
aI0
aI1
aI1
aI1
aI1
aI0
aI0
aI0
aI0
aI0
aI0
aI0
aI0
aI0
asS'label_user_oneperres'
p207
I1
sS'label_colour'
p208
S'complement'
p209
sS'truncate_mol_name'
p210
I0
sS'label_user_selparams'
p211
(dp212
sS'label_select'
p213
S'label_no'
p214
sS'truncate_mol_name_length'
p215
I6
sssS'styleparams'
p216
(dp217
S'style_mode'
p218
S'SPLINE'
p219
sS'inter_dispobj_bond'
p220
I1
ssba(idataobj
DispObjShadow
p221
(dp222
g74
(dp223
g76
g11
sg77
I0
sg78
(dp224
g80
g81
sg85
g86
sg88
g89
sg91
g92
sg93
g94
sg95
g96
ssg97
g11
sg98
(lp225
S'Edited scheme'
p226
asg101
g102
sg103
g11
sg105
g11
sg106
g185
sg108
(lp227
sg116
g117
ssg4
g43
sg5
g118
sg19
I0
sg119
(dp228
g121
g11
sg122
g11
sg123
g11
sg124
I0
sg125
g11
sg126
g11
sg127
g128
sg129
g130
sg131
g132
sg133
(lp229
sg135
F4.0
sg136
I1
sg137
(lp230
sg139
g11
sg140
(lp231
sg142
g96
sg143
I0
sg144
g11
sg145
(lp232
sg147
I0
sg148
(lp233
sg150
I0
sg151
(lp234
sg153
(lp235
sg155
(lp236
sg157
(lp237
sg159
g11
sg160
(lp238
sg162
I0
sg163
g164
sg165
(lp239
sg167
g11
sg168
(lp240
sg170
(lp241
sg172
I0
sg173
g11
sg174
g11
sg175
(lp242
sg177
g11
sg178
I00
sg179
I0
sg180
g11
sg132
g96
sg181
I1
sg182
(lp243
sg184
I0
sg185
g11
sg186
g96
sg187
g11
sg188
g94
sg189
g11
sg190
(lp244
sg192
g11
sg193
(lp245
ssg26
(dp246
g28
F1.0
sg15
S'C84A0295517D4EB39294A3A17E252B18'
p247
sg197
I01
sg32
I0
sg198
I-1
sg19
I0
sg199
I01
sg33
g11
sg36
S'bonds'
p248
sg201
I00
sg202
g11
sg203
(dp249
g205
g206
sg207
I1
sg208
g209
sg210
I0
sg211
g212
sg213
g214
sg215
I6
sssg216
(dp250
g218
S'BONDS'
p251
sg220
I1
ssba(idataobj
DispObjShadow
p252
(dp253
g74
(dp254
g76
g11
sg77
I0
sg78
(dp255
g80
g81
sg85
g86
sg88
g89
sg91
g92
sg93
g94
sg95
g96
ssg97
g11
sg98
g225
sg101
g102
sg103
g11
sg105
g11
sg106
S'electrostatic'
p256
sg108
g227
sg116
g117
ssg4
g44
sg5
S'SurfaceDispobj'
p257
sg19
I0
sg119
(dp258
g121
g11
sg122
g11
sg123
g11
sg124
I0
sg125
g11
sg126
g11
sg127
g128
sg129
g130
sg131
g87
sg133
(lp259
sg135
F4.0
sg136
I1
sg137
(lp260
sg139
g11
sg140
(lp261
sg142
g96
sg143
I0
sg144
g11
sg145
(lp262
sg147
I0
sg148
(lp263
sg150
I0
sg151
(lp264
sg153
(lp265
sg155
(lp266
sg157
(lp267
sg159
g11
sg160
(lp268
sg162
I0
sg163
g164
sg165
(lp269
sg167
g11
sg168
(lp270
sg170
(lp271
sg172
I0
sg173
g11
sg174
g11
sg175
(lp272
sg177
g11
sg178
I00
sg179
I0
sg180
g11
sg132
g11
sg181
I1
sg182
(lp273
sg184
I0
sg185
g11
sg186
g87
sg187
g11
sg188
g94
sg189
g11
sg190
(lp274
sg192
g11
sg193
(lp275
ssg26
(dp276
g28
F1.0
sS'surface_type'
p277
S'normal'
p278
sg15
S'F92EB1B8641745F7BFD6B769C3FF4403'
p279
sg32
I0
sg19
I0
sS'surface_style'
p280
S'solid'
p281
sg33
g11
sg36
S'whole_surface'
p282
ssg216
(dp283
g121
g11
sg122
g11
sg123
g11
sg124
I0
sg125
g11
sg126
g11
sg127
g128
sg129
g130
sg131
g87
sg133
(lp284
sg135
F4.0
sg136
I1
sg137
(lp285
sg139
g11
sg140
(lp286
sg142
g96
sg143
I0
sg144
g11
sg145
(lp287
sg147
g44
sg148
(lp288
sg150
I0
sg151
(lp289
sg153
(lp290
sg155
(lp291
sg157
(lp292
sg159
g11
sg160
(lp293
sg162
I0
sg163
g164
sg165
(lp294
sg167
g11
sg168
(lp295
sg170
(lp296
sg172
I0
sg173
g11
sg174
g11
sg175
(lp297
sg177
g11
sg178
I00
sg179
I0
sg180
g11
sg132
g11
sg181
I1
sg182
(lp298
sg184
I0
sg185
g11
sg186
g87
sg187
g11
sg188
g94
sg189
g11
sg190
(lp299
sg192
g11
sg193
(lp300
ssbasbsS'params2'
p301
(dp302
S'socket_preferences'
p303
(dp304
S'local_only'
p305
I1
sS'open_socket'
p306
I0
ssS'save_session_options'
p307
(dp308
S'backup_data_files'
p309
I0
sS'restore_data'
p310
I1
sS'interpret_old_selections'
p311
I1
sS'save_projects'
p312
I0
sS'ask_restore_data'
p313
I0
ssS'download_preferences'
p314
(dp315
S'PDBJapan_Search'
p316
S'pdbjs3.protein.osaka-u.ac.jp/xPSSS/index.html'
p317
sS'RCSB_Download_CIF'
p318
S'http://www.rcsb.org/pdb/files/PDBID.cif'
p319
sS'EBI_Download_CIF'
p320
S'https://www.ebi.ac.uk/pdbe/entry-files/download/PDBID.cif'
p321
sS'http_proxy'
p322
g11
sS'PDBJapan_Download_PDB'
p323
S'ftp://www.pdbj.org/pdb_nc/pdbPDBID.ent'
p324
sS'preferred_site'
p325
S'EBI'
p326
sS'EBI_Download_PDB'
p327
S'https://www.ebi.ac.uk/pdbe/entry-files/download/pdbPDBID.ent'
p328
sS'RCSB_Search'
p329
S'www.rcsb.org/pdb'
p330
sS'PDBJapan_Download_CIF'
p331
S'ftp://ftp.pdbj.org/mmcif/PDBID.cif.gz'
p332
sS'http_user'
p333
g11
sS'RCSB_Download_PDB'
p334
S'http://www.rcsb.org/pdb/files/PDBID.pdb'
p335
sS'http_password'
p336
g11
sS'EBI_Search'
p337
S'www.ebi.ac.uk/msd-srv/msdlite/index.html'
p338
ssS'HBond_param'
p339
(dp340
S'min_D_H_A'
p341
F90.0
sS'max_H_A'
p342
F2.5
sS'min_D_A_AA'
p343
F90.0
sS'max_D_A'
p344
F3.1
sS'max_D_A_S'
p345
F3.9
sS'min_H_A_AA'
p346
F90.0
sS'min_DD_D_A'
p347
F90.0
sS'min_D_A'
p348
F2.0
ssS'MapDispParamsManager'
p349
(dp350
S'inside_shiny'
p351
I1
sS'line_width'
p352
F1.0
sS'surface_style'
p353
S'surface_style_chickenwire'
p354
sS'contour_sigma_max'
p355
F5.0
sS'cylinder_width'
p356
F0.03
sS'dot_size'
p357
F1.0
sS'double_side'
p358
I0
sS'ncontours'
p359
I1
sS'inside_colour'
p360
S'default'
p361
sS'other_colour'
p362
S'magenta'
p363
sS'diff_pos_colour'
p364
S'green'
p365
sS'radius'
p366
F10.0
sS'dot_spacing'
p367
F0.3
sS'diff_neg_colour'
p368
S'red'
p369
sS'sampling_rate'
p370
F0.75
sS'contour_scale'
p371
S'absolute'
p372
sS'first_colour'
p373
S'blue'
p374
ssS'Surface_electro'
p375
(dp376
g168
(lp377
F0.0
aF-0.5
aF0.0
aF0.5
aF0.0
asg80
(lp378
S'red'
p379
aS'red'
p380
aS'white'
p381
aS'blue'
p382
aS'blue'
p383
asS'colour_wheel_direction'
p384
S'clockwise'
p385
sS'interpolate_mode'
p386
S'HSV'
p387
ssS'atom_label_params'
p388
(dp389
g210
I0
sS'show_number_label'
p390
I0
sg213
g214
sg215
I6
sg205
g206
ssS'SecStr_param'
p391
(dp392
S'min_helix_length'
p393
I4
sS'flagBulge'
p394
I1
ssS'geometry_preferences'
p395
(dp396
S'style'
p397
S'Line'
p398
sS'single_click_label'
p399
I1
sS'angles_dp'
p400
I1
sS'width'
p401
I4
sS'bonds_dp'
p402
I2
sS'show_angles'
p403
I0
sS'show_torsions'
p404
I0
sS'line_colour'
p405
S'red'
p406
sS'text_colour'
p407
S'default'
p408
ssS'render_quality'
p409
(dp410
S'use_vbo'
p411
I1
sS'use_ambocc'
p412
I0
sS'smooth_line'
p413
I1
sS'use_outline'
p414
I0
sS'force_use_va'
p415
I1
sS'use_shadows'
p416
I0
sS'use_shaders'
p417
I0
sS'solid_quality'
p418
I1
ssS'centre_mode'
p419
(dp420
S'centre_method'
p421
I0
ssS'screenshot_preferences'
p422
(dp423
S'offscreen'
p424
I1
sS'antialias'
p425
I1
ssS'miscell_prefs'
p426
(dp427
S'text_label_background'
p428
I0
sS'flip_text'
p429
I0
sS'fog_text'
p430
I0
sS'depth_text'
p431
I0
sS'text_label_background_colour'
p432
g92
ssS'Surface_map'
p433
(dp434
g168
(lp435
F0.0
aF-0.5
aF0.0
aF0.5
aF0.0
asg80
(lp436
S'red'
p437
aS'red'
p438
aS'white'
p439
aS'blue'
p440
aS'blue'
p441
asg384
g385
sg386
g387
ssS'ambient_occlusion_prefs'
p442
(dp443
S'ambocc_znear'
p444
F100.0
sS'ambocc_bias'
p445
F0.3
sS'ambocc_radius'
p446
F15.0
sS'ambocc_scale'
p447
F1.0
sS'ambocc_zfar'
p448
F150.0
ssS'Animation_param'
p449
(dp450
S'delay'
p451
F0.1
sS'flash_delay'
p452
F0.5
sS'update_properties'
p453
I1
ssS'model_drawing_style'
p454
(dp455
S'fat_bond_width'
p456
I4
sS'bond_width'
p457
I2
sS'thin_bond_width'
p458
I1
sS'glycoblock_interaction_dash_length'
p459
F0.36
sS'arrow_length'
p460
F2.2
sS'anisou_scale_byvdw'
p461
I0
sS'grey_ribbon_edge'
p462
I0
sS'worm_width'
p463
F0.2
sS'glycoblock_interaction_line_width'
p464
I2
sS'loop_frac'
p465
I1
sS'dashed_bond_length'
p466
F0.3
sS'dashed_bonds'
p467
I0
sS'glycoblock_interaction_cylinder_radius'
p468
F0.1
sS'glycoblock_draw_cov_protein_interactions'
p469
I1
sS'ballstick_stick'
p470
F0.1
sS'glycoblock_interaction_style'
p471
S'Dashed cylinder'
p472
sS'helix_style'
p473
I0
sS'helix_tube_diameter'
p474
F1.5
sS'sphere_radii_scale'
p475
F1.0
sS'base_block_thickness'
p476
F0.2
sS'anisou_style'
p477
S'solidaxes'
p478
sS'ball_radii_scale'
p479
F0.2
sS'deloc_ring'
p480
I0
sS'anisou_scale'
p481
F1.0
sS'flatten_loop'
p482
I0
sS'glycoblock_scale'
p483
F1.3
sS'glycoblock_interaction_colour'
p484
S'black'
p485
sS'flatten_beta'
p486
I1
sS'ribbon_width'
p487
F2.5
sS'glycoblock_stick_colour'
p488
g485
sS'nucleic_stick_width'
p489
F0.4
sS'glycoblock_label_protein_interactions'
p490
I0
sS'show_multiple_bonds'
p491
I0
sS'arrow_width'
p492
F2.2
sS'glycoblock_draw_protein_interactions'
p493
I0
sS'trace_cutoff'
p494
F4.8
sS'alpha_helix_width'
p495
F1.5
sS'pyramid_size'
p496
F0.1
sS'spline_beta_flat'
p497
I1
sS'cylinder_width'
p498
F0.2
sS'glycoblock_thickness'
p499
F0.35
sS'two_colour_ribbon'
p500
I0
sS'ribbon_style'
p501
I0
ssS'hydrophobicity_preferences'
p502
(dp503
sS'Contacts_param'
p504
(dp505
S'test_VDW_radius'
p506
I0
sS'VDW_fraction_min'
p507
F0.0
sS'simple_min_cutoff'
p508
F0.0
sS'label_VDW_radius'
p509
I0
sS'exclude_hbondable'
p510
I0
sS'simple_max_cutoff'
p511
F4.0
sS'VDW_fraction_max'
p512
F0.9
sS'test_metal_coord_distance'
p513
I1
ssS'HBond_drawing_style'
p514
(dp515
g352
I2
sS'contacts_line_style'
p516
S'lines'
p517
sS'label_mode'
p518
I0
sS'contacts_label_mode'
p519
I1
sS'contacts_line_width'
p520
I2
sS'line_style'
p521
g517
ssS'stereo_prefs'
p522
(dp523
S'stereo_mode'
p524
I1
sS'shear_sep'
p525
F0.1
sS'rot_sep'
p526
F6.0
ssS'restype'
p527
(dp528
g168
(lp529
S'*'
p530
aS'PHE'
p531
aS'TRP'
p532
aS'TYR'
p533
aS'PRO'
p534
aS'VAL'
p535
aS'ALA'
p536
aS'ILE'
p537
aS'LEU'
p538
aS'SER'
p539
aS'THR'
p540
aS'ASN'
p541
aS'GLN'
p542
aS'ARG'
p543
aS'LYS'
p544
aS'ASP'
p545
aS'GLU'
p546
aS'CYS'
p547
aS'MET'
p548
aS'GLY'
p549
aS'HIS'
p550
aS'A'
p551
aS'T'
p552
aS'G'
p553
aS'C'
p554
aS'U'
p555
aS'DA'
p556
aS'DT'
p557
aS'DG'
p558
aS'DC'
p559
aS'ADE'
p560
aS'THY'
p561
aS'GUA'
p562
aS'CYT'
p563
aS'URA'
p564
aS'BMA'
p565
aS'MAN'
p566
aS'NAG'
p567
aS'GLC'
p568
aS'BGC'
p569
aS'GCS'
p570
aS'GAL'
p571
aS'NGA'
p572
aS'MGC'
p573
aS'NG1'
p574
aS'NG6'
p575
aS'A2G'
p576
aS'6MN'
p577
aS'GLP'
p578
aS'GP4'
p579
aS'BEM'
p580
aS'KDN'
p581
aS'XLS'
p582
aS'CXY'
p583
aS'RBY'
p584
aS'TDX'
p585
aS'XYL'
p586
aS'XYS'
p587
aS'XYP'
p588
aS'FCA'
p589
aS'FCB'
p590
aS'FUC'
p591
aS'GTR'
p592
aS'ADA'
p593
aS'DGU'
p594
aS'SI3'
p595
aS'NCC'
p596
aS'NGF'
p597
aS'NGE'
p598
aS'NGC'
p599
aS'GC4'
p600
aS'GCD'
p601
aS'GCU'
p602
aS'GCV'
p603
aS'GCW'
p604
aS'IDS'
p605
aS'REL'
p606
aS'IDR'
p607
aS'SIA'
p608
asg80
(lp609
S'grey'
p610
aS'magenta'
p611
aS'magenta'
p612
aS'magenta'
p613
aS'coral'
p614
aS'coral'
p615
aS'coral'
p616
aS'coral'
p617
aS'coral'
p618
aS'cyan'
p619
aS'cyan'
p620
aS'cyan'
p621
aS'cyan'
p622
aS'blue'
p623
aS'blue'
p624
aS'red'
p625
aS'red'
p626
aS'yellow'
p627
aS'yellow'
p628
aS'white'
p629
aS'light blue'
p630
aS'red'
p631
aS'yellow'
p632
aS'green'
p633
aS'blue'
p634
aS'magenta'
p635
aS'red'
p636
aS'yellow'
p637
aS'green'
p638
aS'blue'
p639
aS'red'
p640
aS'yellow'
p641
aS'green'
p642
aS'blue'
p643
aS'magenta'
p644
aS'green'
p645
aS'green'
p646
aS'blue'
p647
aS'blue'
p648
aS'blue'
p649
aS'blue'
p650
aS'yellow'
p651
aS'yellow'
p652
aS'yellow'
p653
aS'yellow'
p654
aS'yellow'
p655
aS'yellow'
p656
aS'blue'
p657
aS'blue'
p658
aS'blue'
p659
aS'green'
p660
aS'light green'
p661
aS'coral'
p662
aS'coral'
p663
aS'coral'
p664
aS'coral'
p665
aS'coral'
p666
aS'coral'
p667
aS'coral'
p668
aS'red'
p669
aS'red'
p670
aS'red'
p671
aS'yellow'
p672
aS'yellow'
p673
aS'yellow'
p674
aS'purple'
p675
aS'purple'
p676
aS'light blue'
p677
aS'light blue'
p678
aS'light blue'
p679
aS'blue'
p680
aS'blue'
p681
aS'blue'
p682
aS'blue'
p683
aS'blue'
p684
aS'blue'
p685
aS'blue'
p686
aS'pale brown'
p687
aS'purple'
p688
asg384
S'clockwise'
p689
sg386
S'HSV'
p690
ssS'smiles_preferences'
p691
(dp692
S'niter'
p693
I200
sS'nconf'
p694
I20
ssS'surface_drawing_style'
p695
(dp696
S'inside_shiny'
p697
I1
sS'line_width'
p698
F1.0
sS'probe_radius'
p699
F1.5
sS'resolution_delta'
p700
I30
sS'dot_spacing'
p701
F0.1
sS'blend_edges'
p702
I0
sS'dot_size'
p703
F1.0
sS'double_side'
p704
I0
sS'inside_colour'
p705
S'default'
p706
sS'context_cutoff'
p707
F6.0
sS'warning_on'
p708
I1
sS'warning_limit'
p709
I1000
ssS'sequence_preferences'
p710
(dp711
S'muscle_exe'
p712
g11
sS'cobalt_dir'
p713
g11
sS'colouring_mode'
p714
I0
sS'blastdb_exe'
p715
g11
sS'cobalt_exe'
p716
g11
sS'mrbump_ccp4_dir'
p717
g11
sS'min_seq_length'
p718
I10
sS'blast_db'
p719
g11
sS'blastp_exe'
p720
g11
sS'font_size'
p721
I12
sS'blastn_exe'
p722
g11
sS'allow_remote_blast'
p723
I0
ssS'advanced_options'
p724
(dp725
S'iconized_display_table'
p726
I0
sS'super_compact_display_table'
p727
I0
sS'dockable_display_table'
p728
I1
sS'developer_mode'
p729
I0
ssS'atomtype'
p730
(dp731
g168
(lp732
g530
aS' C'
p733
aS' O'
p734
aS' N'
p735
aS' S'
p736
aS' H'
p737
aS' P'
p738
asg80
(lp739
S'grey'
p740
aS'green'
p741
aS'red'
p742
aS'blue'
p743
aS'yellow'
p744
aS'grey'
p745
aS'magenta'
p746
asg384
g689
sg386
g690
ssS'secstr'
p747
(dp748
g168
(lp749
S'No structure'
p750
aS'Beta strand'
p751
aS'Beta bulge'
p752
aS'3-turn'
p753
aS'4-turn'
p754
aS'5-turn'
p755
aS'Alpha helix'
p756
asg80
(lp757
S'grey'
p758
aS'blue'
p759
aS'blue'
p760
aS'pink'
p761
aS'tan'
p762
aS'coral'
p763
aS'red'
p764
asg384
g689
sg386
g690
ssS'SASArea_param'
p765
(dp766
S'list_selection_2'
p767
g11
sS'exclude_non_polymer'
p768
I1
sS'brick_margin'
p769
F5.0
sS'list_selection_1'
p770
S'polar_atoms'
p771
sS'limit_selection'
p772
S'amino_acid'
p773
sS'HOHrad'
p774
F1.4
sS'point_density'
p775
F1.0
sS'exclude_solvent'
p776
I1
ssS'movie_preferences'
p777
(dp778
S'show_progress'
p779
I1
sS'player_exe'
p780
S'mplayer'
p781
sS'ffmpeg_exe'
p782
S'ffmpeg'
p783
sS'mencoder_exe'
p784
S'mencoder'
p785
sS'player_command'
p786
S'-loop 0'
p787
sS'convert_command'
p788
S'-quality 100'
p789
sS'mencoder_merge_command'
p790
S'-ovc copy'
p791
sS'convert_exe'
p792
S'convert'
p793
sS'mencoder_command'
p794
S'-ovc lavc -lavcopts vcodec=msmpeg4v2:vbitrate=1800'
p795
sS'ffmpeg_command'
p796
S'-f mpeg -vcodec mpeg1video -ar 48000 -b 7000000 -ab 192000 -y'
p797
sssS'gui_params'
p798
(dp799
S'background_colour'
p800
(lp801
I255
aI255
aI255
asS'defaultObjBodyVisibility'
p802
S'open_all'
p803
sS'main_toolbar'
p804
(dp805
S'toolbar_icon_size'
p806
S'medium'
p807
sS'toolbar_loaded_actions'
p808
(lp809
S'open'
p810
aS'download'
p811
aS'save_status_to_file'
p812
aS'screenshot'
p813
aS'view_back'
p814
aS'view_forward'
p815
aS'display_back'
p816
aS'display_forward'
p817
aS'recentre'
p818
aS'centreOn'
p819
aS'clearLabels'
p820
aS'fog_on'
p821
aS'slab_on'
p822
aS'superpose'
p823
aS'open_movie'
p824
aS'new_movie'
p825
aS'preferences'
p826
aS'picture_wizard'
p827
aS'PDB search'
p828
aS'Geometry'
p829
aS'Glycan viewer'
p830
aS'Download electron density'
p831
aS'Pisa structure analysis'
p832
aS'ProSMART analysis'
p833
aS'Sequence viewer'
p834
aS'Simpler Display Table'
p835
asS'toolbar_style'
p836
S'icon_only'
p837
ssS'last_directory'
p838
S'C:/Users/eliez/OneDrive/Tesis y titulacion/Antimicrobial_Peptides_QSAR_Prediction_Project/PrediccionNovelPeptides/Modelamiento/03.GIRIPKATSRKRYLKKIFEKKQAFVLFRFIP'
p839
sS'rockParams'
p840
(dp841
S'rollorientation'
p842
S'y'
p843
sS'rollspeed'
p844
F0.5
sS'rockspeed'
p845
F0.5
sS'rockangle'
p846
I20
ssS'show_scale'
p847
I0
sS'centre_mode'
p848
I0
sS'show_axes'
p849
I0
ssS'picture_wizard'
p850
(dp851
S'recentre_after_wizard'
p852
I1
sS'keep_display_objects'
p853
I0
sS'recentre'
p854
I0
sS'hide_unselected_dataobj'
p855
I0
sS'show_wizard_choices'
p856
I0
sS'default_drawing_style'
p857
S'Ligand_binding_site:Site_and_ribbons_by_PDB_file'
p858
ssS'view2'
p859
(dp860
S'scale'
p861
F115.07731911644007
sS'fog_strength'
p862
I0
sS'transparency'
p863
I00
sS'fog_auto'
p864
I00
sS'quat'
p865
(lp866
F-0.4463162017562773
aF-0.19933887897230615
aF0.22862794254090688
aF-0.8418997109339996
asS'slab_auto'
p867
I00
sS'pos'
p868
(lp869
F-41.510820228992216
aF-38.53883758172898
aF-41.5566880232367
asS'customClipPlanes'
p870
(lp871
sS'slab_offset'
p872
I0
sS'clip_cap'
p873
I00
sS'fog_near'
p874
F-0.0
sS'slab_enabled'
p875
I00
sS'fog_enabled'
p876
I01
sS'slab_width'
p877
I10
sS'fog_far'
p878
F20.0
ssS'applications'
p879
(dp880
S'picture_wizard'
p881
(dp882
g852
I1
sg853
I0
sg854
I0
sg855
I0
sg856
I0
sg857
g858
ssS'Superpose'
p883
(dp884
S'fixed_mask_colour'
p885
S'blue'
p886
sS'monomer_keep_matches'
p887
I0
sS'apply_interactive_all'
p888
I0
sS'close_atoms_res_cutoff'
p889
F2.0
sS'show_mask'
p890
I0
sS'close_atoms_cutoff'
p891
F0.5
sS'close_atoms_initial_global'
p892
I0
sS'show_equiv_mol'
p893
S'model2'
p894
sS'show_equivalents'
p895
I0
sS'close_atoms_central_atom'
p896
S' CA '
p897
sS'show_distances'
p898
I1
sS'moving_mask_colour'
p899
S'dark purple'
p900
sS'superposeModels'
p901
(dp902
S'model3'
p903
(dp904
S'matches'
p905
(lp906
sS'on'
p907
I1
sS'MolData_name'
p908
g903
sS'selection'
p909
S'all'
p910
sS'fixed_MolData_name'
p911
S'model1'
p912
ssg894
(dp913
g905
(lp914
(dp915
g907
I1
sS'qualifier'
p916
g11
sS'sele2'
p917
g11
sS'sele1'
p918
g11
sS'mode'
p919
S'range'
p920
sS'close'
p921
I0
sasg907
I1
sg908
g894
sg909
S'all'
p922
sg911
g912
ssg912
(dp923
g905
(lp924
sg907
I1
sg908
g912
sg909
S'all'
p925
sg911
g912
ssS'model5'
p926
(dp927
g905
(lp928
sg907
I1
sg908
g926
sg909
S'all'
p929
sg911
g912
ssS'model4'
p930
(dp931
g905
(lp932
sg907
I1
sg908
g930
sg909
S'all'
p933
sg911
g912
sssS'selected_atoms_mode'
p934
S'catrace'
p935
sS'conn_colour'
p936
S'black'
p937
sS'fixed'
p938
g912
sS'method'
p939
S'close'
p940
sS'selected_atoms_selection'
p941
(lp942
S'CA'
p943
aS'CB'
p944
asssS'AllModelInfo'
p945
(dp946
g37
(iModelInfo
ModInfo
p947
(dp948
S'ccp4mg_version'
p949
g57
sS'user_colour_schemes'
p950
(dp951
S'hidrop'
p952
(lp953
(lp954
S'blue'
p955
ag11
aa(lp956
S'red'
p957
a(lp958
NaS'/*/*/(ALA,VAL,PRO,LEU,ILE,MET,PHE,TRP)/*:*'
p959
aaassS'pdbfile'
p960
g47
sbssS'light'
p961
(dp962
I0
(dp963
g34
(F0.0
F0.0
F60.0
tp964
sS'on'
p965
I1
sS'specular'
p966
(F1.0
F1.0
F1.0
tp967
sS'diffuse'
p968
(F1.0
F1.0
F1.0
tp969
sS'ambient'
p970
(F0.0
F0.0
F0.0
tp971
ssS'nLights'
p972
I1
ssS'COLOUR'
p973
(lp974
(lp975
(lp976
g361
a(lp977
F1.0
aF1.0
aF1.0
aF1.0
aaa(lp978
g51
a(lp979
F0.61
aF0.69
aF1.0
aF1.0
aaa(lp980
S'gold'
p981
a(lp982
F0.7
aF0.69
aF0.24
aF1.0
aaa(lp983
S'coral'
p984
a(lp985
F1.0
aF0.5
aF0.31
aF1.0
aaa(lp986
S'grey'
p987
a(lp988
F0.5
aF0.5
aF0.5
aF1.0
aaa(lp989
S'pink'
p990
a(lp991
F1.0
aF0.57
aF1.0
aF1.0
aaa(lp992
S'sea green'
p993
a(lp994
F0.5
aF0.73
aF0.71
aF1.0
aaa(lp995
S'pale brown'
p996
a(lp997
F0.66
aF0.49
aF0.37
aF1.0
aaa(lp998
S'lilac'
p999
a(lp1000
F0.68
aF0.53
aF0.73
aF1.0
aaa(lp1001
S'lemon'
p1002
a(lp1003
F1.0
aF1.0
aF0.5
aF1.0
aaa(lp1004
S'lawn green'
p1005
a(lp1006
F0.27
aF0.61
aF0.31
aF1.0
aaa(lp1007
S'pale crimson'
p1008
a(lp1009
F0.82
aF0.24
aF0.24
aF1.0
aaa(lp1010
S'light blue'
p1011
a(lp1012
F0.25
aF0.6
aF0.88
aF1.0
aaa(lp1013
S'tan'
p1014
a(lp1015
F0.47
aF0.0
aF0.0
aF1.0
aaa(lp1016
S'light green'
p1017
a(lp1018
F0.6
aF1.0
aF0.6
aF1.0
aaa(lp1019
S'yellow'
p1020
a(lp1021
F1.0
aF1.0
aF0.0
aF1.0
aaa(lp1022
S'white'
p1023
a(lp1024
F1.0
aF1.0
aF1.0
aF1.0
aaa(lp1025
g374
a(lp1026
F0.0
aF0.0
aF1.0
aF1.0
aaa(lp1027
g369
a(lp1028
F1.0
aF0.0
aF0.0
aF1.0
aaa(lp1029
g365
a(lp1030
F0.0
aF1.0
aF0.0
aF1.0
aaa(lp1031
g363
a(lp1032
F1.0
aF0.0
aF1.0
aF1.0
aaa(lp1033
S'cyan'
p1034
a(lp1035
F0.0
aF1.0
aF0.88
aF1.0
aaa(lp1036
S'purple'
p1037
a(lp1038
F0.58
aF0.0
aF1.0
aF1.0
aaa(lp1039
S'dark purple'
p1040
a(lp1041
F0.57
aF0.13
aF0.34
aF1.0
aaa(lp1042
S'dark cyan'
p1043
a(lp1044
F0.06
aF0.58
aF0.65
aF1.0
aaa(lp1045
S'black'
p1046
a(lp1047
F0.0
aF0.0
aF0.0
aF1.0
aaa(lp1048
S'alice blue'
p1049
a(lp1050
F0.94
aF0.97
aF1.0
aF1.0
aaa(lp1051
S'antique white'
p1052
a(lp1053
F0.98
aF0.92
aF0.84
aF1.0
aaa(lp1054
S'aqua'
p1055
a(lp1056
F0.0
aF1.0
aF1.0
aF1.0
aaa(lp1057
S'aquamarine'
p1058
a(lp1059
F0.5
aF1.0
aF0.83
aF1.0
aaa(lp1060
S'azure'
p1061
a(lp1062
F0.94
aF1.0
aF1.0
aF1.0
aaa(lp1063
S'beige'
p1064
a(lp1065
F0.96
aF0.96
aF0.86
aF1.0
aaa(lp1066
S'bisque'
p1067
a(lp1068
F1.0
aF0.89
aF0.77
aF1.0
aaa(lp1069
S'blanched almond'
p1070
a(lp1071
F1.0
aF0.92
aF0.8
aF1.0
aaa(lp1072
S'blue violet'
p1073
a(lp1074
F0.54
aF0.17
aF0.89
aF1.0
aaa(lp1075
S'brown'
p1076
a(lp1077
F0.65
aF0.16
aF0.16
aF1.0
aaa(lp1078
S'burlywood'
p1079
a(lp1080
F0.87
aF0.72
aF0.53
aF1.0
aaa(lp1081
S'cadet blue'
p1082
a(lp1083
F0.37
aF0.62
aF0.63
aF1.0
aaa(lp1084
S'chartreuse'
p1085
a(lp1086
F0.5
aF1.0
aF0.0
aF1.0
aaa(lp1087
S'chocolate'
p1088
a(lp1089
F0.82
aF0.41
aF0.12
aF1.0
aaa(lp1090
S'cornflower blue'
p1091
a(lp1092
F0.39
aF0.58
aF0.93
aF1.0
aaa(lp1093
S'cornsilk'
p1094
a(lp1095
F1.0
aF0.97
aF0.86
aF1.0
aaa(lp1096
S'crimson'
p1097
a(lp1098
F0.86
aF0.08
aF0.24
aF1.0
aaa(lp1099
S'dark blue'
p1100
a(lp1101
F0.0
aF0.0
aF0.55
aF1.0
aaa(lp1102
S'dark goldenrod'
p1103
a(lp1104
F0.72
aF0.53
aF0.04
aF1.0
aaa(lp1105
S'dark gray'
p1106
a(lp1107
F0.66
aF0.66
aF0.66
aF1.0
aaa(lp1108
S'dark green'
p1109
a(lp1110
F0.0
aF0.39
aF0.0
aF1.0
aaa(lp1111
S'dark grey'
p1112
a(lp1113
F0.66
aF0.66
aF0.66
aF1.0
aaa(lp1114
S'dark khaki'
p1115
a(lp1116
F0.74
aF0.72
aF0.42
aF1.0
aaa(lp1117
S'dark magenta'
p1118
a(lp1119
F0.55
aF0.0
aF0.55
aF1.0
aaa(lp1120
S'dark olive green'
p1121
a(lp1122
F0.33
aF0.42
aF0.18
aF1.0
aaa(lp1123
S'dark orange'
p1124
a(lp1125
F1.0
aF0.55
aF0.0
aF1.0
aaa(lp1126
S'dark orchid'
p1127
a(lp1128
F0.6
aF0.2
aF0.8
aF1.0
aaa(lp1129
S'dark red'
p1130
a(lp1131
F0.55
aF0.0
aF0.0
aF1.0
aaa(lp1132
S'dark salmon'
p1133
a(lp1134
F0.91
aF0.59
aF0.48
aF1.0
aaa(lp1135
S'dark sea green'
p1136
a(lp1137
F0.56
aF0.74
aF0.56
aF1.0
aaa(lp1138
S'dark slate blue'
p1139
a(lp1140
F0.28
aF0.24
aF0.55
aF1.0
aaa(lp1141
S'dark slate gray'
p1142
a(lp1143
F0.18
aF0.31
aF0.31
aF1.0
aaa(lp1144
S'dark slate grey'
p1145
a(lp1146
F0.18
aF0.31
aF0.31
aF1.0
aaa(lp1147
S'dark turquoise'
p1148
a(lp1149
F0.0
aF0.81
aF0.82
aF1.0
aaa(lp1150
S'dark violet'
p1151
a(lp1152
F0.58
aF0.0
aF0.83
aF1.0
aaa(lp1153
S'deep pink'
p1154
a(lp1155
F1.0
aF0.08
aF0.58
aF1.0
aaa(lp1156
S'deep sky blue'
p1157
a(lp1158
F0.0
aF0.75
aF1.0
aF1.0
aaa(lp1159
S'dim gray'
p1160
a(lp1161
F0.41
aF0.41
aF0.41
aF1.0
aaa(lp1162
S'dim grey'
p1163
a(lp1164
F0.41
aF0.41
aF0.41
aF1.0
aaa(lp1165
S'dodger blue'
p1166
a(lp1167
F0.12
aF0.56
aF1.0
aF1.0
aaa(lp1168
S'firebrick'
p1169
a(lp1170
F0.7
aF0.13
aF0.13
aF1.0
aaa(lp1171
S'floral white'
p1172
a(lp1173
F1.0
aF0.98
aF0.94
aF1.0
aaa(lp1174
S'forest green'
p1175
a(lp1176
F0.13
aF0.55
aF0.13
aF1.0
aaa(lp1177
S'fuchsia'
p1178
a(lp1179
F1.0
aF0.0
aF1.0
aF1.0
aaa(lp1180
S'gainsboro'
p1181
a(lp1182
F0.86
aF0.86
aF0.86
aF1.0
aaa(lp1183
S'ghost white'
p1184
a(lp1185
F0.97
aF0.97
aF1.0
aF1.0
aaa(lp1186
S'goldenrod'
p1187
a(lp1188
F0.85
aF0.65
aF0.13
aF1.0
aaa(lp1189
S'gray'
p1190
a(lp1191
F0.75
aF0.75
aF0.75
aF1.0
aaa(lp1192
S'green yellow'
p1193
a(lp1194
F0.68
aF1.0
aF0.18
aF1.0
aaa(lp1195
S'honeydew'
p1196
a(lp1197
F0.94
aF1.0
aF0.94
aF1.0
aaa(lp1198
S'hot pink'
p1199
a(lp1200
F1.0
aF0.41
aF0.71
aF1.0
aaa(lp1201
S'indian red'
p1202
a(lp1203
F0.8
aF0.36
aF0.36
aF1.0
aaa(lp1204
S'indigo'
p1205
a(lp1206
F0.29
aF0.0
aF0.51
aF1.0
aaa(lp1207
S'ivory'
p1208
a(lp1209
F1.0
aF1.0
aF0.94
aF1.0
aaa(lp1210
S'khaki'
p1211
a(lp1212
F0.94
aF0.9
aF0.55
aF1.0
aaa(lp1213
S'lavender blush'
p1214
a(lp1215
F1.0
aF0.94
aF0.96
aF1.0
aaa(lp1216
S'lavender'
p1217
a(lp1218
F0.9
aF0.9
aF0.98
aF1.0
aaa(lp1219
S'lemon chiffon'
p1220
a(lp1221
F1.0
aF0.98
aF0.8
aF1.0
aaa(lp1222
S'light coral'
p1223
a(lp1224
F0.94
aF0.5
aF0.5
aF1.0
aaa(lp1225
S'light cyan'
p1226
a(lp1227
F0.88
aF1.0
aF1.0
aF1.0
aaa(lp1228
S'light goldenrod yellow'
p1229
a(lp1230
F0.98
aF0.98
aF0.82
aF1.0
aaa(lp1231
S'light goldenrod'
p1232
a(lp1233
F0.93
aF0.87
aF0.51
aF1.0
aaa(lp1234
S'light gray'
p1235
a(lp1236
F0.83
aF0.83
aF0.83
aF1.0
aaa(lp1237
S'light grey'
p1238
a(lp1239
F0.83
aF0.83
aF0.83
aF1.0
aaa(lp1240
S'light pink'
p1241
a(lp1242
F1.0
aF0.71
aF0.76
aF1.0
aaa(lp1243
S'light salmon'
p1244
a(lp1245
F1.0
aF0.63
aF0.48
aF1.0
aaa(lp1246
S'light sea green'
p1247
a(lp1248
F0.13
aF0.7
aF0.67
aF1.0
aaa(lp1249
S'light sky blue'
p1250
a(lp1251
F0.53
aF0.81
aF0.98
aF1.0
aaa(lp1252
S'light slate blue'
p1253
a(lp1254
F0.52
aF0.44
aF1.0
aF1.0
aaa(lp1255
S'light slate gray'
p1256
a(lp1257
F0.47
aF0.53
aF0.6
aF1.0
aaa(lp1258
S'light slate grey'
p1259
a(lp1260
F0.47
aF0.53
aF0.6
aF1.0
aaa(lp1261
S'light steel blue'
p1262
a(lp1263
F0.69
aF0.77
aF0.87
aF1.0
aaa(lp1264
S'light yellow'
p1265
a(lp1266
F1.0
aF1.0
aF0.88
aF1.0
aaa(lp1267
S'lime green'
p1268
a(lp1269
F0.2
aF0.8
aF0.2
aF1.0
aaa(lp1270
S'lime'
p1271
a(lp1272
F0.0
aF1.0
aF0.0
aF1.0
aaa(lp1273
S'linen'
p1274
a(lp1275
F0.98
aF0.94
aF0.9
aF1.0
aaa(lp1276
S'maroon'
p1277
a(lp1278
F0.69
aF0.19
aF0.38
aF1.0
aaa(lp1279
S'medium aquamarine'
p1280
a(lp1281
F0.4
aF0.8
aF0.67
aF1.0
aaa(lp1282
S'medium blue'
p1283
a(lp1284
F0.0
aF0.0
aF0.8
aF1.0
aaa(lp1285
S'medium orchid'
p1286
a(lp1287
F0.73
aF0.33
aF0.83
aF1.0
aaa(lp1288
S'medium purple'
p1289
a(lp1290
F0.58
aF0.44
aF0.86
aF1.0
aaa(lp1291
S'medium sea green'
p1292
a(lp1293
F0.24
aF0.7
aF0.44
aF1.0
aaa(lp1294
S'medium slate blue'
p1295
a(lp1296
F0.48
aF0.41
aF0.93
aF1.0
aaa(lp1297
S'medium spring green'
p1298
a(lp1299
F0.0
aF0.98
aF0.6
aF1.0
aaa(lp1300
S'medium turquoise'
p1301
a(lp1302
F0.28
aF0.82
aF0.8
aF1.0
aaa(lp1303
S'medium violet red'
p1304
a(lp1305
F0.78
aF0.08
aF0.52
aF1.0
aaa(lp1306
S'midnight blue'
p1307
a(lp1308
F0.1
aF0.1
aF0.44
aF1.0
aaa(lp1309
S'mint cream'
p1310
a(lp1311
F0.96
aF1.0
aF0.98
aF1.0
aaa(lp1312
S'misty rose'
p1313
a(lp1314
F1.0
aF0.89
aF0.88
aF1.0
aaa(lp1315
S'moccasin'
p1316
a(lp1317
F1.0
aF0.89
aF0.71
aF1.0
aaa(lp1318
S'navajo white'
p1319
a(lp1320
F1.0
aF0.87
aF0.68
aF1.0
aaa(lp1321
S'navy blue'
p1322
a(lp1323
F0.0
aF0.0
aF0.5
aF1.0
aaa(lp1324
S'navy'
p1325
a(lp1326
F0.0
aF0.0
aF0.5
aF1.0
aaa(lp1327
S'old lace'
p1328
a(lp1329
F0.99
aF0.96
aF0.9
aF1.0
aaa(lp1330
S'olive drab'
p1331
a(lp1332
F0.42
aF0.56
aF0.14
aF1.0
aaa(lp1333
S'olive'
p1334
a(lp1335
F0.5
aF0.5
aF0.0
aF1.0
aaa(lp1336
S'orange red'
p1337
a(lp1338
F1.0
aF0.27
aF0.0
aF1.0
aaa(lp1339
S'orange'
p1340
a(lp1341
F1.0
aF0.65
aF0.0
aF1.0
aaa(lp1342
S'orchid'
p1343
a(lp1344
F0.85
aF0.44
aF0.84
aF1.0
aaa(lp1345
S'pale goldenrod'
p1346
a(lp1347
F0.93
aF0.91
aF0.67
aF1.0
aaa(lp1348
S'pale green'
p1349
a(lp1350
F0.6
aF0.98
aF0.6
aF1.0
aaa(lp1351
S'pale turquoise'
p1352
a(lp1353
F0.69
aF0.93
aF0.93
aF1.0
aaa(lp1354
S'pale violet red'
p1355
a(lp1356
F0.86
aF0.44
aF0.58
aF1.0
aaa(lp1357
S'papaya whip'
p1358
a(lp1359
F1.0
aF0.94
aF0.84
aF1.0
aaa(lp1360
S'peach puff'
p1361
a(lp1362
F1.0
aF0.85
aF0.73
aF1.0
aaa(lp1363
S'peru'
p1364
a(lp1365
F0.8
aF0.52
aF0.25
aF1.0
aaa(lp1366
S'plum'
p1367
a(lp1368
F0.87
aF0.63
aF0.87
aF1.0
aaa(lp1369
S'powder blue'
p1370
a(lp1371
F0.69
aF0.88
aF0.9
aF1.0
aaa(lp1372
S'rebecca purple'
p1373
a(lp1374
F0.4
aF0.2
aF0.6
aF1.0
aaa(lp1375
S'rosy brown'
p1376
a(lp1377
F0.74
aF0.56
aF0.56
aF1.0
aaa(lp1378
S'royal blue'
p1379
a(lp1380
F0.25
aF0.41
aF0.88
aF1.0
aaa(lp1381
S'saddle brown'
p1382
a(lp1383
F0.55
aF0.27
aF0.07
aF1.0
aaa(lp1384
S'salmon'
p1385
a(lp1386
F0.98
aF0.5
aF0.45
aF1.0
aaa(lp1387
S'sandy brown'
p1388
a(lp1389
F0.96
aF0.64
aF0.38
aF1.0
aaa(lp1390
S'seashell'
p1391
a(lp1392
F1.0
aF0.96
aF0.93
aF1.0
aaa(lp1393
S'sienna'
p1394
a(lp1395
F0.63
aF0.32
aF0.18
aF1.0
aaa(lp1396
S'silver'
p1397
a(lp1398
F0.75
aF0.75
aF0.75
aF1.0
aaa(lp1399
S'sky blue'
p1400
a(lp1401
F0.53
aF0.81
aF0.92
aF1.0
aaa(lp1402
S'slate blue'
p1403
a(lp1404
F0.42
aF0.35
aF0.8
aF1.0
aaa(lp1405
S'slate gray'
p1406
a(lp1407
F0.44
aF0.5
aF0.56
aF1.0
aaa(lp1408
S'slate grey'
p1409
a(lp1410
F0.44
aF0.5
aF0.56
aF1.0
aaa(lp1411
S'snow'
p1412
a(lp1413
F1.0
aF0.98
aF0.98
aF1.0
aaa(lp1414
S'spring green'
p1415
a(lp1416
F0.0
aF1.0
aF0.5
aF1.0
aaa(lp1417
S'steel blue'
p1418
a(lp1419
F0.27
aF0.51
aF0.71
aF1.0
aaa(lp1420
S'teal'
p1421
a(lp1422
F0.0
aF0.5
aF0.5
aF1.0
aaa(lp1423
S'thistle'
p1424
a(lp1425
F0.85
aF0.75
aF0.85
aF1.0
aaa(lp1426
S'tomato'
p1427
a(lp1428
F1.0
aF0.39
aF0.28
aF1.0
aaa(lp1429
S'turquoise'
p1430
a(lp1431
F0.25
aF0.88
aF0.82
aF1.0
aaa(lp1432
S'violet red'
p1433
a(lp1434
F0.82
aF0.13
aF0.56
aF1.0
aaa(lp1435
S'violet'
p1436
a(lp1437
F0.93
aF0.51
aF0.93
aF1.0
aaa(lp1438
S'web gray'
p1439
a(lp1440
F0.5
aF0.5
aF0.5
aF1.0
aaa(lp1441
S'web green'
p1442
a(lp1443
F0.0
aF0.5
aF0.0
aF1.0
aaa(lp1444
S'web grey'
p1445
a(lp1446
F0.5
aF0.5
aF0.5
aF1.0
aaa(lp1447
S'web maroon'
p1448
a(lp1449
F0.5
aF0.0
aF0.0
aF1.0
aaa(lp1450
S'web purple'
p1451
a(lp1452
F0.5
aF0.0
aF0.5
aF1.0
aaa(lp1453
S'wheat'
p1454
a(lp1455
F0.96
aF0.87
aF0.7
aF1.0
aaa(lp1456
S'white smoke'
p1457
a(lp1458
F0.96
aF0.96
aF0.96
aF1.0
aaa(lp1459
S'x11 gray'
p1460
a(lp1461
F0.75
aF0.75
aF0.75
aF1.0
aaa(lp1462
S'x11 green'
p1463
a(lp1464
F0.0
aF1.0
aF0.0
aF1.0
aaa(lp1465
S'x11 grey'
p1466
a(lp1467
F0.75
aF0.75
aF0.75
aF1.0
aaa(lp1468
S'x11 maroon'
p1469
a(lp1470
F0.69
aF0.19
aF0.38
aF1.0
aaa(lp1471
S'x11 purple'
p1472
a(lp1473
F0.63
aF0.13
aF0.94
aF1.0
aaa(lp1474
S'yellow green'
p1475
a(lp1476
F0.6
aF0.8
aF0.2
aF1.0
aaaaI169
asS'fonts'
p1477
(dp1478
S'atom_label'
p1479
(dp1480
S'size'
p1481
I13
sS'underline'
p1482
I0
sS'weight'
p1483
S'normal'
p1484
sS'family'
p1485
csip
_unpickle_type
p1486
(S'PyQt4.QtCore'
p1487
S'QString'
p1488
(VMS Shell Dlg 2
p1489
tp1490
tp1491
Rp1492
sS'slant'
p1493
S'r'
p1494
ssS'applicationFont'
p1495
(dp1496
g1481
I8
sg1482
I0
sg1483
g1484
sg1485
g1486
(g1487
S'QString'
p1497
(VMS Shell Dlg 2
p1498
tp1499
tp1500
Rp1501
sg1493
g1494
ssS'annotation'
p1502
(dp1503
g1481
I18
sg1482
I0
sg1483
g1484
sg1485
g1486
(g1487
S'QString'
p1504
(VMS Shell Dlg 2
p1505
tp1506
tp1507
Rp1508
sg1493
g1494
ssS'pick_atom_label'
p1509
(dp1510
g1481
I13
sg1482
I0
sg1483
g1484
sg1485
g1486
(g1487
S'QString'
p1511
(VMS Shell Dlg 2
p1512
tp1513
tp1514
Rp1515
sg1493
g1494
ssS'legend'
p1516
(dp1517
g1481
I32
sg1482
I0
sg1483
g1484
sg1485
g1486
(g1487
S'QString'
p1518
(VMS Shell Dlg 2
p1519
tp1520
tp1521
Rp1522
sg1493
g1494
sssS'pick_labels'
p1523
(dp1524
S'max_labels'
p1525
I20
sg210
I0
sg215
I6
sg205
(lp1526
I0
aI0
aI0
aI1
aI1
aI1
aI1
aI0
aI0
aI0
aI0
aI0
aI0
aI0
aI0
aI0
assS'file_viewer'
p1527
(dp1528
S'supported_plugins'
p1529
(dp1530
ssS'Data_list'
p1531
(lp1532
g37
ag1
asS'version'
p1533
g57
sS'ModelInfo'
p1534
(dp1535
S'user_file'
p1536
(dp1537
S'generic'
p1538
(lp1539
S'dotCCP4MG'
p1540
aS'generic.ccp4mg'
p1541
aS'C:\\Users\\eliez\\CCP4MG2\\generic.ccp4mg'
p1542
asssS'plugins'
p1543
(dp1544
S'ShadersPlugin'
p1545
(dp1546
S'use_shadows'
p1547
I0
sS'use_shaders'
p1548
I0
sS'use_outline'
p1549
I0
sS'use_ambocc'
p1550
I0
ssS'Render'
p1551
(dp1552
S'scalebartext'
p1553
I01
sS'stereo'
p1554
I00
sS'save_status'
p1555
I01
sS'dpi_spin'
p1556
I300
sS'scaleFonts'
p1557
I1
sS'stereo_sep'
p1558
F0.1
sS'height_dpi_inches'
p1559
F4.31
sS'height'
p1560
I430
sS'stereo_angle'
p1561
F6.0
sS'width'
p1562
I600
sS'magnification'
p1563
F1.0
sS'keepAspect'
p1564
I1
sS'size_mode'
p1565
S'dpi_defined'
p1566
sS'scaleLines'
p1567
I1
sS'stereo_mode'
p1568
S'shear'
p1569
sS'scaleImages'
p1570
I1
sS'preview'
p1571
I01
sS'transparent'
p1572
I01
sS'renderParams'
p1573
(dp1574
S'ambocc_samples'
p1575
I64
sS'save_rib'
p1576
I00
sS'ambocc_scale'
p1577
F1.0
sS'ambocc'
p1578
I00
sS'smoothRibbons'
p1579
I00
sS'raytrace'
p1580
I01
ssS'width_dpi_inches'
p1581
F6.0
ssS'GeometryPlugin'
p1582
(dp1583
S'atoms'
p1584
(lp1585
(lp1586
asssS'mouse_bindings'
p1587
(dp1588
S'translate-z'
p1589
(dp1590
S'shift'
p1591
I0
sS'alt'
p1592
I0
sS'mouse_button'
p1593
S'middle'
p1594
sS'key'
p1595
S'z'
p1596
sS'ctrl'
p1597
I0
ssS'object-rotate-xy'
p1598
(dp1599
g1591
I0
sg1592
I0
sg1593
S'left'
p1600
sg1595
S'x'
p1601
sg1597
I0
ssS'rotate-xy'
p1602
(dp1603
g1591
I0
sg1592
I0
sg1593
g1600
sg1595
S' '
p1604
sg1597
I0
ssS'object-translate-z'
p1605
(dp1606
g1591
I1
sg1592
I0
sg1593
g1594
sg1595
g1601
sg1597
I0
ssS'zoom'
p1607
(dp1608
g1591
I0
sg1592
I0
sg1593
g1594
sg1595
g1604
sg1597
I0
ssS'translate-xy'
p1609
(dp1610
g1591
I1
sg1592
I0
sg1593
g1594
sg1595
g1604
sg1597
I0
ssS'clip-width'
p1611
(dp1612
g1591
I0
sg1592
I0
sg1593
g1594
sg1595
S'c'
p1613
sg1597
I0
ssS'rotate-z'
p1614
(dp1615
g1591
I1
sg1592
I0
sg1593
g1600
sg1595
g1604
sg1597
I0
ssS'object-rotate-z'
p1616
(dp1617
g1591
I1
sg1592
I0
sg1593
g1600
sg1595
g1601
sg1597
I0
ssS'object-translate-xy'
p1618
(dp1619
g1591
I0
sg1592
I0
sg1593
g1594
sg1595
g1601
sg1597
I0
sssS'windowGeometry'
p1620
g1486
(g1487
S'QByteArray'
p1621
(S'\x01\xd9\xd0\xcb\x00\x01\x00\x00\xff\xff\xff\xf7\xff\xff\xff\xf7\x00\x00\x07\x88\x00\x00\x04\x04\x00\x00\x00=\x00\x00\x00?\x00\x00\x06i\x00\x00\x03\xc0\x00\x00\x00\x00\x02\x00'
p1622
tp1623
tp1624
Rp1625
s.