(dp0
S'view2'
p1
(dp2
S'scale'
p3
F73.31678811692022
sS'fog_strength'
p4
I0
sS'transparency'
p5
I00
sS'fog_auto'
p6
I00
sS'quat'
p7
(lp8
F-0.40704789606241837
aF0.04568166098301792
aF-0.8991117318312042
aF-0.15434795057242615
asS'slab_auto'
p9
I00
sS'pos'
p10
(lp11
F-34.19802877719335
aF-36.77891423046688
aF-38.7913160941701
asS'customClipPlanes'
p12
(lp13
sS'slab_offset'
p14
I0
sS'clip_cap'
p15
I00
sS'fog_near'
p16
F-0.0
sS'slab_enabled'
p17
I00
sS'fog_enabled'
p18
I0
sS'slab_width'
p19
I10
sS'fog_far'
p20
F20.0
ssS'ampFinal06_model8'
p21
(idataobj
DataObjShadow
p22
(dp23
S'name'
p24
g21
sS'object_type'
p25
S'MolData'
p26
sS'objnames'
p27
(lp28
S'ampFinal06_model8MolDisp1'
p29
aS'ampFinal06_model8MolDisp2'
p30
aS'ampFinal06_model8SurfaceDispobj3'
p31
asS'filename'
p32
(lp33
S'FULLPATH'
p34
aS'C:/Users/eliez/OneDrive/Tesis y titulacion/Antimicrobial_Peptides_QSAR_Prediction_Project/PrediccionNovelPeptides/Modelamiento/06.WRRLKLFKTSKVKYIYKKKGSLVK\\ampFinal06-model8.pdb'
p35
ag35
asS'dataparams'
p36
(dp37
S'expanded'
p38
I1
sS'uuid'
p39
S'C9B3D85E8E684F54A74ACB618F946DBC'
p40
sS'mol_colour'
p41
S'grey'
p42
sS'check_graphs'
p43
I1
sg25
g26
sS'show_aromatic_rings'
p44
I1
sS'module'
p45
S'model'
p46
sg32
g33
sS'visible'
p47
I1
sS'customResCIFFiles'
p48
(dp49
sS'ccp4mg_creator_version'
p50
S'2.10.11'
p51
sS'model_symmetry'
p52
(dp53
S'symmetry_visible'
p54
(lp55
sS'symmetry_colours'
p56
(lp57
sS'MolDisp_selection'
p58
S'all atoms'
p59
sS'symmetry_MolDisp_objects'
p60
(lp61
sS'MolDisp_visible'
p62
I1
ssS'lastWizardRun'
p63
S'Ligand_binding_site:Site_and_ribbons_by_PDB_file'
p64
ssg47
I1
sS'objinsts'
p65
(lp66
(idataobj
DispObjShadow
p67
(dp68
S'colparams'
p69
(dp70
S'interface_MolData_name'
p71
S''
p72
sS'non_C_atomtype'
p73
I0
sS'colour_blend'
p74
(dp75
S'colours'
p76
(lp77
(lp78
S'blue'
p79
aS'red'
p80
aasS'selection_command'
p81
(lp82
S'peptide'
p83
asS'direction'
p84
(lp85
S'anti-clockwise'
p86
asS'default_colour'
p87
S'white'
p88
sS'group'
p89
S'residue'
p90
sS'type'
p91
S'all'
p92
ssS'one_colour'
p93
g72
sS'user_scheme'
p94
(lp95
S'Edited scheme'
p96
asS'stick_colour'
p97
S'ATOM'
p98
sS'colour_legend'
p99
S'<span style="color:;">User colour rules </span>\n</p><p><span style="color:red;">/*/*/(ALA,VAL,PRO,LEU,ILE </span>\n</p><p>'
p100
sS'interface_selection'
p101
g72
sS'colour_mode'
p102
S'rules'
p103
sS'colour_rules'
p104
(lp105
(lp106
S'blue'
p107
ag72
aa(lp108
S'red'
p109
a(lp110
NaS'/*/*/(ALA,VAL,PRO,LEU,ILE,MET,PHE,TRP)/*:*'
p111
aaasS'interface_style'
p112
S'RESIDUE'
p113
ssg24
g29
sg25
S'MolDisp'
p114
sg47
I1
sS'selparams'
p115
(dp116
S'features'
p117
g72
sS'symid'
p118
g72
sS'neighb_mol'
p119
g72
sS'ranges_neighb_invert'
p120
I0
sS'buried_sel'
p121
g72
sS'contact_mol'
p122
g72
sS'property_join'
p123
S'and'
p124
sS'neighb_rad'
p125
S'4.0'
p126
sS'select'
p127
S'cid'
p128
sS'restypes'
p129
(lp130
sS'ranges_neighb_cutoff'
p131
F4.0
sS'ranges_extend'
p132
I1
sS'nmr_models'
p133
(lp134
sS'ranges_neighb_model'
p135
g72
sS'sites'
p136
(lp137
sS'ranges_neighb_qualifier'
p138
g92
sS'neighb_excl_solvent'
p139
I0
sS'buried_mol'
p140
g72
sS'entities'
p141
(lp142
sS'same_as'
p143
I0
sS'secstr'
p144
(lp145
sS'neighb_hb'
p146
I0
sS'nglycosylation'
p147
(lp148
sS'chains'
p149
(lp150
sS'property_gt_value'
p151
(lp152
sS'alt_locs'
p153
(lp154
sS'contact_sel'
p155
g72
sS'property_gt_op'
p156
(lp157
sS'nothydrogen'
p158
I0
sS'buried_group'
p159
S'atom'
p160
sS'property_lt_value'
p161
(lp162
sS'as_MolDisp'
p163
g72
sS'ranges'
p164
(lp165
sS'elementtypes'
p166
(lp167
sS'neighb_excl_monomer'
p168
I0
sS'selection_scheme'
p169
g72
sS'ranges_qualifier'
p170
g72
sS'ligands'
p171
(lp172
sS'neighb_sel'
p173
g72
sS'use_all_models'
p174
I00
sS'neighb_sym'
p175
I0
sS'user_sel'
p176
g72
sg128
g83
sS'neighb_excl'
p177
I1
sS'property_lt_op'
p178
(lp179
sS'ranges_invert'
p180
I0
sS'atomtype'
p181
g72
sS'command'
p182
g83
sS'neighb_selobj'
p183
g72
sS'neighb_group'
p184
g90
sS'buried_and_selection'
p185
g72
sS'property'
p186
(lp187
sS'ranges_neighb_selection'
p188
g72
sS'oglycosylation'
p189
(lp190
ssS'params'
p191
(dp192
S'opacity'
p193
F1.0
sg39
S'48EB2901750E403895CF9803F6583FCD'
p194
sS'doCentralSymmetry'
p195
I01
sS'legend_visible'
p196
I0
sS'nbiomol'
p197
I-1
sg47
I1
sS'doSymmetry'
p198
I01
sS'customSelectionName'
p199
g72
sS'display_class'
p200
S'ribbon'
p201
sS'doBiomolecule'
p202
I00
sS'contact_MolDisp'
p203
g72
sS'label_params'
p204
(dp205
S'label_style'
p206
(lp207
I0
aI0
aI0
aI1
aI1
aI1
aI1
aI0
aI0
aI0
aI0
aI0
aI0
aI0
aI0
aI0
asS'label_user_oneperres'
p208
I1
sS'label_colour'
p209
S'complement'
p210
sS'truncate_mol_name'
p211
I0
sS'label_user_selparams'
p212
(dp213
sS'label_select'
p214
S'label_no'
p215
sS'truncate_mol_name_length'
p216
I6
sssS'styleparams'
p217
(dp218
S'style_mode'
p219
S'SPLINE'
p220
sS'inter_dispobj_bond'
p221
I1
ssba(idataobj
DispObjShadow
p222
(dp223
g69
(dp224
g71
g72
sg73
I0
sg74
(dp225
g76
g77
sg81
g82
sg84
g85
sg87
g88
sg89
g90
sg91
g92
ssg93
g72
sg94
(lp226
S'Edited scheme'
p227
asg97
g98
sg99
g72
sg101
g72
sg102
g181
sg104
(lp228
sg112
g113
ssg24
g30
sg25
g114
sg47
I0
sg115
(dp229
g117
g72
sg118
g72
sg119
g72
sg120
I0
sg121
g72
sg122
g72
sg123
g124
sg125
g126
sg127
g128
sg129
(lp230
sg131
F4.0
sg132
I1
sg133
(lp231
sg135
g72
sg136
(lp232
sg138
g92
sg139
I0
sg140
g72
sg141
(lp233
sg143
I0
sg144
(lp234
sg146
I0
sg147
(lp235
sg149
(lp236
sg151
(lp237
sg153
(lp238
sg155
g72
sg156
(lp239
sg158
I0
sg159
g160
sg161
(lp240
sg163
g72
sg164
(lp241
sg166
(lp242
sg168
I0
sg169
g72
sg170
g72
sg171
(lp243
sg173
g72
sg174
I00
sg175
I0
sg176
g72
sg128
g92
sg177
I1
sg178
(lp244
sg180
I0
sg181
g72
sg182
g92
sg183
g72
sg184
g90
sg185
g72
sg186
(lp245
sg188
g72
sg189
(lp246
ssg191
(dp247
g193
F1.0
sg39
S'8B079A2B89F240719DA1D80117560C53'
p248
sg195
I01
sg196
I0
sg197
I-1
sg47
I0
sg198
I01
sg199
g72
sg200
S'bonds'
p249
sg202
I00
sg203
g72
sg204
(dp250
g206
g207
sg208
I1
sg209
g210
sg211
I0
sg212
g213
sg214
g215
sg216
I6
sssg217
(dp251
g219
S'BONDS'
p252
sg221
I1
ssba(idataobj
DispObjShadow
p253
(dp254
g69
(dp255
g71
g72
sg73
I0
sg74
(dp256
g76
g77
sg81
g82
sg84
g85
sg87
g88
sg89
g90
sg91
g92
ssg93
g72
sg94
g226
sg97
g98
sg99
g72
sg101
g72
sg102
S'electrostatic'
p257
sg104
g228
sg112
g113
ssg24
g31
sg25
S'SurfaceDispobj'
p258
sg47
I0
sg115
(dp259
g117
g72
sg118
g72
sg119
g72
sg120
I0
sg121
g72
sg122
g72
sg123
g124
sg125
g126
sg127
g83
sg129
(lp260
sg131
F4.0
sg132
I1
sg133
(lp261
sg135
g72
sg136
(lp262
sg138
g92
sg139
I0
sg140
g72
sg141
(lp263
sg143
I0
sg144
(lp264
sg146
I0
sg147
(lp265
sg149
(lp266
sg151
(lp267
sg153
(lp268
sg155
g72
sg156
(lp269
sg158
I0
sg159
g160
sg161
(lp270
sg163
g72
sg164
(lp271
sg166
(lp272
sg168
I0
sg169
g72
sg170
g72
sg171
(lp273
sg173
g72
sg174
I00
sg175
I0
sg176
g72
sg128
g72
sg177
I1
sg178
(lp274
sg180
I0
sg181
g72
sg182
g83
sg183
g72
sg184
g90
sg185
g72
sg186
(lp275
sg188
g72
sg189
(lp276
ssg191
(dp277
g193
F1.0
sS'surface_type'
p278
S'normal'
p279
sg39
S'3FA320B9D390407CBAF0167441B66529'
p280
sg196
I0
sg47
I0
sS'surface_style'
p281
S'solid'
p282
sg199
g72
sg200
S'whole_surface'
p283
ssg217
(dp284
g117
g72
sg118
g72
sg119
g72
sg120
I0
sg121
g72
sg122
g72
sg123
g124
sg125
g126
sg127
g83
sg129
(lp285
sg131
F4.0
sg132
I1
sg133
(lp286
sg135
g72
sg136
(lp287
sg138
g92
sg139
I0
sg140
g72
sg141
(lp288
sg143
g31
sg144
(lp289
sg146
I0
sg147
(lp290
sg149
(lp291
sg151
(lp292
sg153
(lp293
sg155
g72
sg156
(lp294
sg158
I0
sg159
g160
sg161
(lp295
sg163
g72
sg164
(lp296
sg166
(lp297
sg168
I0
sg169
g72
sg170
g72
sg171
(lp298
sg173
g72
sg174
I00
sg175
I0
sg176
g72
sg128
g72
sg177
I1
sg178
(lp299
sg180
I0
sg181
g72
sg182
g83
sg183
g72
sg184
g90
sg185
g72
sg186
(lp300
sg188
g72
sg189
(lp301
ssbasbsS'plugins'
p302
(dp303
S'ShadersPlugin'
p304
(dp305
S'use_shadows'
p306
I0
sS'use_shaders'
p307
I0
sS'use_outline'
p308
I0
sS'use_ambocc'
p309
I0
ssS'Render'
p310
(dp311
S'scalebartext'
p312
I01
sS'stereo'
p313
I00
sS'save_status'
p314
I01
sS'dpi_spin'
p315
I300
sS'scaleFonts'
p316
I1
sS'stereo_sep'
p317
F0.1
sS'height_dpi_inches'
p318
F4.31
sS'height'
p319
I430
sS'stereo_angle'
p320
F6.0
sS'width'
p321
I600
sS'magnification'
p322
F1.0
sS'keepAspect'
p323
I1
sS'size_mode'
p324
S'dpi_defined'
p325
sS'scaleLines'
p326
I1
sS'stereo_mode'
p327
S'shear'
p328
sS'scaleImages'
p329
I1
sS'preview'
p330
I01
sS'transparent'
p331
I01
sS'renderParams'
p332
(dp333
S'ambocc_samples'
p334
I64
sS'save_rib'
p335
I00
sS'ambocc_scale'
p336
F1.0
sS'ambocc'
p337
I00
sS'smoothRibbons'
p338
I00
sS'raytrace'
p339
I01
ssS'width_dpi_inches'
p340
F6.0
ssS'GeometryPlugin'
p341
(dp342
S'atoms'
p343
(lp344
(lp345
asssS'params2'
p346
(dp347
S'socket_preferences'
p348
(dp349
S'local_only'
p350
I1
sS'open_socket'
p351
I0
ssS'save_session_options'
p352
(dp353
S'backup_data_files'
p354
I0
sS'restore_data'
p355
I1
sS'interpret_old_selections'
p356
I1
sS'save_projects'
p357
I0
sS'ask_restore_data'
p358
I0
ssS'download_preferences'
p359
(dp360
S'PDBJapan_Search'
p361
S'pdbjs3.protein.osaka-u.ac.jp/xPSSS/index.html'
p362
sS'RCSB_Download_CIF'
p363
S'http://www.rcsb.org/pdb/files/PDBID.cif'
p364
sS'EBI_Download_CIF'
p365
S'https://www.ebi.ac.uk/pdbe/entry-files/download/PDBID.cif'
p366
sS'http_proxy'
p367
g72
sS'PDBJapan_Download_PDB'
p368
S'ftp://www.pdbj.org/pdb_nc/pdbPDBID.ent'
p369
sS'preferred_site'
p370
S'EBI'
p371
sS'EBI_Download_PDB'
p372
S'https://www.ebi.ac.uk/pdbe/entry-files/download/pdbPDBID.ent'
p373
sS'RCSB_Search'
p374
S'www.rcsb.org/pdb'
p375
sS'PDBJapan_Download_CIF'
p376
S'ftp://ftp.pdbj.org/mmcif/PDBID.cif.gz'
p377
sS'http_user'
p378
g72
sS'RCSB_Download_PDB'
p379
S'http://www.rcsb.org/pdb/files/PDBID.pdb'
p380
sS'http_password'
p381
g72
sS'EBI_Search'
p382
S'www.ebi.ac.uk/msd-srv/msdlite/index.html'
p383
ssS'HBond_param'
p384
(dp385
S'min_D_H_A'
p386
F90.0
sS'max_H_A'
p387
F2.5
sS'min_D_A_AA'
p388
F90.0
sS'max_D_A'
p389
F3.1
sS'max_D_A_S'
p390
F3.9
sS'min_H_A_AA'
p391
F90.0
sS'min_DD_D_A'
p392
F90.0
sS'min_D_A'
p393
F2.0
ssS'MapDispParamsManager'
p394
(dp395
S'inside_shiny'
p396
I1
sS'line_width'
p397
F1.0
sS'surface_style'
p398
S'surface_style_chickenwire'
p399
sS'contour_sigma_max'
p400
F5.0
sS'cylinder_width'
p401
F0.03
sS'dot_size'
p402
F1.0
sS'double_side'
p403
I0
sS'ncontours'
p404
I1
sS'inside_colour'
p405
S'default'
p406
sS'other_colour'
p407
S'magenta'
p408
sS'diff_pos_colour'
p409
S'green'
p410
sS'radius'
p411
F10.0
sS'dot_spacing'
p412
F0.3
sS'diff_neg_colour'
p413
S'red'
p414
sS'sampling_rate'
p415
F0.75
sS'contour_scale'
p416
S'absolute'
p417
sS'first_colour'
p418
S'blue'
p419
ssS'Surface_electro'
p420
(dp421
g164
(lp422
F0.0
aF-0.5
aF0.0
aF0.5
aF0.0
asg76
(lp423
S'red'
p424
aS'red'
p425
aS'white'
p426
aS'blue'
p427
aS'blue'
p428
asS'colour_wheel_direction'
p429
S'clockwise'
p430
sS'interpolate_mode'
p431
S'HSV'
p432
ssS'atom_label_params'
p433
(dp434
g211
I0
sS'show_number_label'
p435
I0
sg214
g215
sg216
I6
sg206
g207
ssS'SecStr_param'
p436
(dp437
S'min_helix_length'
p438
I4
sS'flagBulge'
p439
I1
ssS'geometry_preferences'
p440
(dp441
S'style'
p442
S'Line'
p443
sS'single_click_label'
p444
I1
sS'angles_dp'
p445
I1
sS'width'
p446
I4
sS'bonds_dp'
p447
I2
sS'show_angles'
p448
I0
sS'show_torsions'
p449
I0
sS'line_colour'
p450
S'red'
p451
sS'text_colour'
p452
S'default'
p453
ssS'render_quality'
p454
(dp455
S'use_vbo'
p456
I1
sS'use_ambocc'
p457
I0
sS'smooth_line'
p458
I1
sS'use_outline'
p459
I0
sS'force_use_va'
p460
I1
sS'use_shadows'
p461
I0
sS'use_shaders'
p462
I0
sS'solid_quality'
p463
I1
ssS'centre_mode'
p464
(dp465
S'centre_method'
p466
I0
ssS'screenshot_preferences'
p467
(dp468
S'offscreen'
p469
I1
sS'antialias'
p470
I1
ssS'miscell_prefs'
p471
(dp472
S'text_label_background'
p473
I0
sS'flip_text'
p474
I0
sS'fog_text'
p475
I0
sS'depth_text'
p476
I0
sS'text_label_background_colour'
p477
g88
ssS'Surface_map'
p478
(dp479
g164
(lp480
F0.0
aF-0.5
aF0.0
aF0.5
aF0.0
asg76
(lp481
S'red'
p482
aS'red'
p483
aS'white'
p484
aS'blue'
p485
aS'blue'
p486
asg429
g430
sg431
g432
ssS'ambient_occlusion_prefs'
p487
(dp488
S'ambocc_znear'
p489
F100.0
sS'ambocc_bias'
p490
F0.3
sS'ambocc_radius'
p491
F15.0
sS'ambocc_scale'
p492
F1.0
sS'ambocc_zfar'
p493
F150.0
ssS'Animation_param'
p494
(dp495
S'delay'
p496
F0.1
sS'flash_delay'
p497
F0.5
sS'update_properties'
p498
I1
ssS'model_drawing_style'
p499
(dp500
S'fat_bond_width'
p501
I4
sS'bond_width'
p502
I2
sS'thin_bond_width'
p503
I1
sS'glycoblock_interaction_dash_length'
p504
F0.36
sS'arrow_length'
p505
F2.2
sS'anisou_scale_byvdw'
p506
I0
sS'grey_ribbon_edge'
p507
I0
sS'worm_width'
p508
F0.2
sS'glycoblock_interaction_line_width'
p509
I2
sS'loop_frac'
p510
I1
sS'dashed_bond_length'
p511
F0.3
sS'dashed_bonds'
p512
I0
sS'glycoblock_interaction_cylinder_radius'
p513
F0.1
sS'glycoblock_draw_cov_protein_interactions'
p514
I1
sS'ballstick_stick'
p515
F0.1
sS'glycoblock_interaction_style'
p516
S'Dashed cylinder'
p517
sS'helix_style'
p518
I0
sS'helix_tube_diameter'
p519
F1.5
sS'sphere_radii_scale'
p520
F1.0
sS'base_block_thickness'
p521
F0.2
sS'anisou_style'
p522
S'solidaxes'
p523
sS'ball_radii_scale'
p524
F0.2
sS'deloc_ring'
p525
I0
sS'anisou_scale'
p526
F1.0
sS'flatten_loop'
p527
I0
sS'glycoblock_scale'
p528
F1.3
sS'glycoblock_interaction_colour'
p529
S'black'
p530
sS'flatten_beta'
p531
I1
sS'ribbon_width'
p532
F2.5
sS'glycoblock_stick_colour'
p533
g530
sS'nucleic_stick_width'
p534
F0.4
sS'glycoblock_label_protein_interactions'
p535
I0
sS'show_multiple_bonds'
p536
I0
sS'arrow_width'
p537
F2.2
sS'glycoblock_draw_protein_interactions'
p538
I0
sS'trace_cutoff'
p539
F4.8
sS'alpha_helix_width'
p540
F1.5
sS'pyramid_size'
p541
F0.1
sS'spline_beta_flat'
p542
I1
sS'cylinder_width'
p543
F0.2
sS'glycoblock_thickness'
p544
F0.35
sS'two_colour_ribbon'
p545
I0
sS'ribbon_style'
p546
I0
ssS'hydrophobicity_preferences'
p547
(dp548
sS'Contacts_param'
p549
(dp550
S'test_VDW_radius'
p551
I0
sS'VDW_fraction_min'
p552
F0.0
sS'simple_min_cutoff'
p553
F0.0
sS'label_VDW_radius'
p554
I0
sS'exclude_hbondable'
p555
I0
sS'simple_max_cutoff'
p556
F4.0
sS'VDW_fraction_max'
p557
F0.9
sS'test_metal_coord_distance'
p558
I1
ssS'HBond_drawing_style'
p559
(dp560
g397
I2
sS'contacts_line_style'
p561
S'lines'
p562
sS'label_mode'
p563
I0
sS'contacts_label_mode'
p564
I1
sS'contacts_line_width'
p565
I2
sS'line_style'
p566
g562
ssS'stereo_prefs'
p567
(dp568
S'stereo_mode'
p569
I1
sS'shear_sep'
p570
F0.1
sS'rot_sep'
p571
F6.0
ssS'restype'
p572
(dp573
g164
(lp574
S'*'
p575
aS'PHE'
p576
aS'TRP'
p577
aS'TYR'
p578
aS'PRO'
p579
aS'VAL'
p580
aS'ALA'
p581
aS'ILE'
p582
aS'LEU'
p583
aS'SER'
p584
aS'THR'
p585
aS'ASN'
p586
aS'GLN'
p587
aS'ARG'
p588
aS'LYS'
p589
aS'ASP'
p590
aS'GLU'
p591
aS'CYS'
p592
aS'MET'
p593
aS'GLY'
p594
aS'HIS'
p595
aS'A'
p596
aS'T'
p597
aS'G'
p598
aS'C'
p599
aS'U'
p600
aS'DA'
p601
aS'DT'
p602
aS'DG'
p603
aS'DC'
p604
aS'ADE'
p605
aS'THY'
p606
aS'GUA'
p607
aS'CYT'
p608
aS'URA'
p609
aS'BMA'
p610
aS'MAN'
p611
aS'NAG'
p612
aS'GLC'
p613
aS'BGC'
p614
aS'GCS'
p615
aS'GAL'
p616
aS'NGA'
p617
aS'MGC'
p618
aS'NG1'
p619
aS'NG6'
p620
aS'A2G'
p621
aS'6MN'
p622
aS'GLP'
p623
aS'GP4'
p624
aS'BEM'
p625
aS'KDN'
p626
aS'XLS'
p627
aS'CXY'
p628
aS'RBY'
p629
aS'TDX'
p630
aS'XYL'
p631
aS'XYS'
p632
aS'XYP'
p633
aS'FCA'
p634
aS'FCB'
p635
aS'FUC'
p636
aS'GTR'
p637
aS'ADA'
p638
aS'DGU'
p639
aS'SI3'
p640
aS'NCC'
p641
aS'NGF'
p642
aS'NGE'
p643
aS'NGC'
p644
aS'GC4'
p645
aS'GCD'
p646
aS'GCU'
p647
aS'GCV'
p648
aS'GCW'
p649
aS'IDS'
p650
aS'REL'
p651
aS'IDR'
p652
aS'SIA'
p653
asg76
(lp654
S'grey'
p655
aS'magenta'
p656
aS'magenta'
p657
aS'magenta'
p658
aS'coral'
p659
aS'coral'
p660
aS'coral'
p661
aS'coral'
p662
aS'coral'
p663
aS'cyan'
p664
aS'cyan'
p665
aS'cyan'
p666
aS'cyan'
p667
aS'blue'
p668
aS'blue'
p669
aS'red'
p670
aS'red'
p671
aS'yellow'
p672
aS'yellow'
p673
aS'white'
p674
aS'light blue'
p675
aS'red'
p676
aS'yellow'
p677
aS'green'
p678
aS'blue'
p679
aS'magenta'
p680
aS'red'
p681
aS'yellow'
p682
aS'green'
p683
aS'blue'
p684
aS'red'
p685
aS'yellow'
p686
aS'green'
p687
aS'blue'
p688
aS'magenta'
p689
aS'green'
p690
aS'green'
p691
aS'blue'
p692
aS'blue'
p693
aS'blue'
p694
aS'blue'
p695
aS'yellow'
p696
aS'yellow'
p697
aS'yellow'
p698
aS'yellow'
p699
aS'yellow'
p700
aS'yellow'
p701
aS'blue'
p702
aS'blue'
p703
aS'blue'
p704
aS'green'
p705
aS'light green'
p706
aS'coral'
p707
aS'coral'
p708
aS'coral'
p709
aS'coral'
p710
aS'coral'
p711
aS'coral'
p712
aS'coral'
p713
aS'red'
p714
aS'red'
p715
aS'red'
p716
aS'yellow'
p717
aS'yellow'
p718
aS'yellow'
p719
aS'purple'
p720
aS'purple'
p721
aS'light blue'
p722
aS'light blue'
p723
aS'light blue'
p724
aS'blue'
p725
aS'blue'
p726
aS'blue'
p727
aS'blue'
p728
aS'blue'
p729
aS'blue'
p730
aS'blue'
p731
aS'pale brown'
p732
aS'purple'
p733
asg429
S'clockwise'
p734
sg431
S'HSV'
p735
ssS'smiles_preferences'
p736
(dp737
S'niter'
p738
I200
sS'nconf'
p739
I20
ssS'surface_drawing_style'
p740
(dp741
S'inside_shiny'
p742
I1
sS'line_width'
p743
F1.0
sS'probe_radius'
p744
F1.5
sS'resolution_delta'
p745
I30
sS'dot_spacing'
p746
F0.1
sS'blend_edges'
p747
I0
sS'dot_size'
p748
F1.0
sS'double_side'
p749
I0
sS'inside_colour'
p750
S'default'
p751
sS'context_cutoff'
p752
F6.0
sS'warning_on'
p753
I1
sS'warning_limit'
p754
I1000
ssS'sequence_preferences'
p755
(dp756
S'muscle_exe'
p757
g72
sS'cobalt_dir'
p758
g72
sS'colouring_mode'
p759
I0
sS'blastdb_exe'
p760
g72
sS'cobalt_exe'
p761
g72
sS'mrbump_ccp4_dir'
p762
g72
sS'min_seq_length'
p763
I10
sS'blast_db'
p764
g72
sS'blastp_exe'
p765
g72
sS'font_size'
p766
I12
sS'blastn_exe'
p767
g72
sS'allow_remote_blast'
p768
I0
ssS'advanced_options'
p769
(dp770
S'iconized_display_table'
p771
I0
sS'super_compact_display_table'
p772
I0
sS'dockable_display_table'
p773
I1
sS'developer_mode'
p774
I0
ssS'atomtype'
p775
(dp776
g164
(lp777
g575
aS' C'
p778
aS' O'
p779
aS' N'
p780
aS' S'
p781
aS' H'
p782
aS' P'
p783
asg76
(lp784
S'grey'
p785
aS'green'
p786
aS'red'
p787
aS'blue'
p788
aS'yellow'
p789
aS'grey'
p790
aS'magenta'
p791
asg429
g734
sg431
g735
ssS'secstr'
p792
(dp793
g164
(lp794
S'No structure'
p795
aS'Beta strand'
p796
aS'Beta bulge'
p797
aS'3-turn'
p798
aS'4-turn'
p799
aS'5-turn'
p800
aS'Alpha helix'
p801
asg76
(lp802
S'grey'
p803
aS'blue'
p804
aS'blue'
p805
aS'pink'
p806
aS'tan'
p807
aS'coral'
p808
aS'red'
p809
asg429
g734
sg431
g735
ssS'SASArea_param'
p810
(dp811
S'list_selection_2'
p812
g72
sS'exclude_non_polymer'
p813
I1
sS'brick_margin'
p814
F5.0
sS'list_selection_1'
p815
S'polar_atoms'
p816
sS'limit_selection'
p817
S'amino_acid'
p818
sS'HOHrad'
p819
F1.4
sS'point_density'
p820
F1.0
sS'exclude_solvent'
p821
I1
ssS'movie_preferences'
p822
(dp823
S'show_progress'
p824
I1
sS'player_exe'
p825
S'mplayer'
p826
sS'ffmpeg_exe'
p827
S'ffmpeg'
p828
sS'mencoder_exe'
p829
S'mencoder'
p830
sS'player_command'
p831
S'-loop 0'
p832
sS'convert_command'
p833
S'-quality 100'
p834
sS'mencoder_merge_command'
p835
S'-ovc copy'
p836
sS'convert_exe'
p837
S'convert'
p838
sS'mencoder_command'
p839
S'-ovc lavc -lavcopts vcodec=msmpeg4v2:vbitrate=1800'
p840
sS'ffmpeg_command'
p841
S'-f mpeg -vcodec mpeg1video -ar 48000 -b 7000000 -ab 192000 -y'
p842
sssS'COLOUR'
p843
(lp844
(lp845
(lp846
g406
a(lp847
F1.0
aF1.0
aF1.0
aF1.0
aaa(lp848
S'ice blue'
p849
a(lp850
F0.61
aF0.69
aF1.0
aF1.0
aaa(lp851
S'gold'
p852
a(lp853
F0.7
aF0.69
aF0.24
aF1.0
aaa(lp854
S'coral'
p855
a(lp856
F1.0
aF0.5
aF0.31
aF1.0
aaa(lp857
g42
a(lp858
F0.5
aF0.5
aF0.5
aF1.0
aaa(lp859
S'pink'
p860
a(lp861
F1.0
aF0.57
aF1.0
aF1.0
aaa(lp862
S'sea green'
p863
a(lp864
F0.5
aF0.73
aF0.71
aF1.0
aaa(lp865
S'pale brown'
p866
a(lp867
F0.66
aF0.49
aF0.37
aF1.0
aaa(lp868
S'lilac'
p869
a(lp870
F0.68
aF0.53
aF0.73
aF1.0
aaa(lp871
S'lemon'
p872
a(lp873
F1.0
aF1.0
aF0.5
aF1.0
aaa(lp874
S'lawn green'
p875
a(lp876
F0.27
aF0.61
aF0.31
aF1.0
aaa(lp877
S'pale crimson'
p878
a(lp879
F0.82
aF0.24
aF0.24
aF1.0
aaa(lp880
S'light blue'
p881
a(lp882
F0.25
aF0.6
aF0.88
aF1.0
aaa(lp883
S'tan'
p884
a(lp885
F0.47
aF0.0
aF0.0
aF1.0
aaa(lp886
S'light green'
p887
a(lp888
F0.6
aF1.0
aF0.6
aF1.0
aaa(lp889
S'yellow'
p890
a(lp891
F1.0
aF1.0
aF0.0
aF1.0
aaa(lp892
S'white'
p893
a(lp894
F1.0
aF1.0
aF1.0
aF1.0
aaa(lp895
g419
a(lp896
F0.0
aF0.0
aF1.0
aF1.0
aaa(lp897
g414
a(lp898
F1.0
aF0.0
aF0.0
aF1.0
aaa(lp899
g410
a(lp900
F0.0
aF1.0
aF0.0
aF1.0
aaa(lp901
g408
a(lp902
F1.0
aF0.0
aF1.0
aF1.0
aaa(lp903
S'cyan'
p904
a(lp905
F0.0
aF1.0
aF0.88
aF1.0
aaa(lp906
S'purple'
p907
a(lp908
F0.58
aF0.0
aF1.0
aF1.0
aaa(lp909
S'dark purple'
p910
a(lp911
F0.57
aF0.13
aF0.34
aF1.0
aaa(lp912
S'dark cyan'
p913
a(lp914
F0.06
aF0.58
aF0.65
aF1.0
aaa(lp915
S'black'
p916
a(lp917
F0.0
aF0.0
aF0.0
aF1.0
aaa(lp918
S'alice blue'
p919
a(lp920
F0.94
aF0.97
aF1.0
aF1.0
aaa(lp921
S'antique white'
p922
a(lp923
F0.98
aF0.92
aF0.84
aF1.0
aaa(lp924
S'aqua'
p925
a(lp926
F0.0
aF1.0
aF1.0
aF1.0
aaa(lp927
S'aquamarine'
p928
a(lp929
F0.5
aF1.0
aF0.83
aF1.0
aaa(lp930
S'azure'
p931
a(lp932
F0.94
aF1.0
aF1.0
aF1.0
aaa(lp933
S'beige'
p934
a(lp935
F0.96
aF0.96
aF0.86
aF1.0
aaa(lp936
S'bisque'
p937
a(lp938
F1.0
aF0.89
aF0.77
aF1.0
aaa(lp939
S'blanched almond'
p940
a(lp941
F1.0
aF0.92
aF0.8
aF1.0
aaa(lp942
S'blue violet'
p943
a(lp944
F0.54
aF0.17
aF0.89
aF1.0
aaa(lp945
S'brown'
p946
a(lp947
F0.65
aF0.16
aF0.16
aF1.0
aaa(lp948
S'burlywood'
p949
a(lp950
F0.87
aF0.72
aF0.53
aF1.0
aaa(lp951
S'cadet blue'
p952
a(lp953
F0.37
aF0.62
aF0.63
aF1.0
aaa(lp954
S'chartreuse'
p955
a(lp956
F0.5
aF1.0
aF0.0
aF1.0
aaa(lp957
S'chocolate'
p958
a(lp959
F0.82
aF0.41
aF0.12
aF1.0
aaa(lp960
S'cornflower blue'
p961
a(lp962
F0.39
aF0.58
aF0.93
aF1.0
aaa(lp963
S'cornsilk'
p964
a(lp965
F1.0
aF0.97
aF0.86
aF1.0
aaa(lp966
S'crimson'
p967
a(lp968
F0.86
aF0.08
aF0.24
aF1.0
aaa(lp969
S'dark blue'
p970
a(lp971
F0.0
aF0.0
aF0.55
aF1.0
aaa(lp972
S'dark goldenrod'
p973
a(lp974
F0.72
aF0.53
aF0.04
aF1.0
aaa(lp975
S'dark gray'
p976
a(lp977
F0.66
aF0.66
aF0.66
aF1.0
aaa(lp978
S'dark green'
p979
a(lp980
F0.0
aF0.39
aF0.0
aF1.0
aaa(lp981
S'dark grey'
p982
a(lp983
F0.66
aF0.66
aF0.66
aF1.0
aaa(lp984
S'dark khaki'
p985
a(lp986
F0.74
aF0.72
aF0.42
aF1.0
aaa(lp987
S'dark magenta'
p988
a(lp989
F0.55
aF0.0
aF0.55
aF1.0
aaa(lp990
S'dark olive green'
p991
a(lp992
F0.33
aF0.42
aF0.18
aF1.0
aaa(lp993
S'dark orange'
p994
a(lp995
F1.0
aF0.55
aF0.0
aF1.0
aaa(lp996
S'dark orchid'
p997
a(lp998
F0.6
aF0.2
aF0.8
aF1.0
aaa(lp999
S'dark red'
p1000
a(lp1001
F0.55
aF0.0
aF0.0
aF1.0
aaa(lp1002
S'dark salmon'
p1003
a(lp1004
F0.91
aF0.59
aF0.48
aF1.0
aaa(lp1005
S'dark sea green'
p1006
a(lp1007
F0.56
aF0.74
aF0.56
aF1.0
aaa(lp1008
S'dark slate blue'
p1009
a(lp1010
F0.28
aF0.24
aF0.55
aF1.0
aaa(lp1011
S'dark slate gray'
p1012
a(lp1013
F0.18
aF0.31
aF0.31
aF1.0
aaa(lp1014
S'dark slate grey'
p1015
a(lp1016
F0.18
aF0.31
aF0.31
aF1.0
aaa(lp1017
S'dark turquoise'
p1018
a(lp1019
F0.0
aF0.81
aF0.82
aF1.0
aaa(lp1020
S'dark violet'
p1021
a(lp1022
F0.58
aF0.0
aF0.83
aF1.0
aaa(lp1023
S'deep pink'
p1024
a(lp1025
F1.0
aF0.08
aF0.58
aF1.0
aaa(lp1026
S'deep sky blue'
p1027
a(lp1028
F0.0
aF0.75
aF1.0
aF1.0
aaa(lp1029
S'dim gray'
p1030
a(lp1031
F0.41
aF0.41
aF0.41
aF1.0
aaa(lp1032
S'dim grey'
p1033
a(lp1034
F0.41
aF0.41
aF0.41
aF1.0
aaa(lp1035
S'dodger blue'
p1036
a(lp1037
F0.12
aF0.56
aF1.0
aF1.0
aaa(lp1038
S'firebrick'
p1039
a(lp1040
F0.7
aF0.13
aF0.13
aF1.0
aaa(lp1041
S'floral white'
p1042
a(lp1043
F1.0
aF0.98
aF0.94
aF1.0
aaa(lp1044
S'forest green'
p1045
a(lp1046
F0.13
aF0.55
aF0.13
aF1.0
aaa(lp1047
S'fuchsia'
p1048
a(lp1049
F1.0
aF0.0
aF1.0
aF1.0
aaa(lp1050
S'gainsboro'
p1051
a(lp1052
F0.86
aF0.86
aF0.86
aF1.0
aaa(lp1053
S'ghost white'
p1054
a(lp1055
F0.97
aF0.97
aF1.0
aF1.0
aaa(lp1056
S'goldenrod'
p1057
a(lp1058
F0.85
aF0.65
aF0.13
aF1.0
aaa(lp1059
S'gray'
p1060
a(lp1061
F0.75
aF0.75
aF0.75
aF1.0
aaa(lp1062
S'green yellow'
p1063
a(lp1064
F0.68
aF1.0
aF0.18
aF1.0
aaa(lp1065
S'honeydew'
p1066
a(lp1067
F0.94
aF1.0
aF0.94
aF1.0
aaa(lp1068
S'hot pink'
p1069
a(lp1070
F1.0
aF0.41
aF0.71
aF1.0
aaa(lp1071
S'indian red'
p1072
a(lp1073
F0.8
aF0.36
aF0.36
aF1.0
aaa(lp1074
S'indigo'
p1075
a(lp1076
F0.29
aF0.0
aF0.51
aF1.0
aaa(lp1077
S'ivory'
p1078
a(lp1079
F1.0
aF1.0
aF0.94
aF1.0
aaa(lp1080
S'khaki'
p1081
a(lp1082
F0.94
aF0.9
aF0.55
aF1.0
aaa(lp1083
S'lavender blush'
p1084
a(lp1085
F1.0
aF0.94
aF0.96
aF1.0
aaa(lp1086
S'lavender'
p1087
a(lp1088
F0.9
aF0.9
aF0.98
aF1.0
aaa(lp1089
S'lemon chiffon'
p1090
a(lp1091
F1.0
aF0.98
aF0.8
aF1.0
aaa(lp1092
S'light coral'
p1093
a(lp1094
F0.94
aF0.5
aF0.5
aF1.0
aaa(lp1095
S'light cyan'
p1096
a(lp1097
F0.88
aF1.0
aF1.0
aF1.0
aaa(lp1098
S'light goldenrod yellow'
p1099
a(lp1100
F0.98
aF0.98
aF0.82
aF1.0
aaa(lp1101
S'light goldenrod'
p1102
a(lp1103
F0.93
aF0.87
aF0.51
aF1.0
aaa(lp1104
S'light gray'
p1105
a(lp1106
F0.83
aF0.83
aF0.83
aF1.0
aaa(lp1107
S'light grey'
p1108
a(lp1109
F0.83
aF0.83
aF0.83
aF1.0
aaa(lp1110
S'light pink'
p1111
a(lp1112
F1.0
aF0.71
aF0.76
aF1.0
aaa(lp1113
S'light salmon'
p1114
a(lp1115
F1.0
aF0.63
aF0.48
aF1.0
aaa(lp1116
S'light sea green'
p1117
a(lp1118
F0.13
aF0.7
aF0.67
aF1.0
aaa(lp1119
S'light sky blue'
p1120
a(lp1121
F0.53
aF0.81
aF0.98
aF1.0
aaa(lp1122
S'light slate blue'
p1123
a(lp1124
F0.52
aF0.44
aF1.0
aF1.0
aaa(lp1125
S'light slate gray'
p1126
a(lp1127
F0.47
aF0.53
aF0.6
aF1.0
aaa(lp1128
S'light slate grey'
p1129
a(lp1130
F0.47
aF0.53
aF0.6
aF1.0
aaa(lp1131
S'light steel blue'
p1132
a(lp1133
F0.69
aF0.77
aF0.87
aF1.0
aaa(lp1134
S'light yellow'
p1135
a(lp1136
F1.0
aF1.0
aF0.88
aF1.0
aaa(lp1137
S'lime green'
p1138
a(lp1139
F0.2
aF0.8
aF0.2
aF1.0
aaa(lp1140
S'lime'
p1141
a(lp1142
F0.0
aF1.0
aF0.0
aF1.0
aaa(lp1143
S'linen'
p1144
a(lp1145
F0.98
aF0.94
aF0.9
aF1.0
aaa(lp1146
S'maroon'
p1147
a(lp1148
F0.69
aF0.19
aF0.38
aF1.0
aaa(lp1149
S'medium aquamarine'
p1150
a(lp1151
F0.4
aF0.8
aF0.67
aF1.0
aaa(lp1152
S'medium blue'
p1153
a(lp1154
F0.0
aF0.0
aF0.8
aF1.0
aaa(lp1155
S'medium orchid'
p1156
a(lp1157
F0.73
aF0.33
aF0.83
aF1.0
aaa(lp1158
S'medium purple'
p1159
a(lp1160
F0.58
aF0.44
aF0.86
aF1.0
aaa(lp1161
S'medium sea green'
p1162
a(lp1163
F0.24
aF0.7
aF0.44
aF1.0
aaa(lp1164
S'medium slate blue'
p1165
a(lp1166
F0.48
aF0.41
aF0.93
aF1.0
aaa(lp1167
S'medium spring green'
p1168
a(lp1169
F0.0
aF0.98
aF0.6
aF1.0
aaa(lp1170
S'medium turquoise'
p1171
a(lp1172
F0.28
aF0.82
aF0.8
aF1.0
aaa(lp1173
S'medium violet red'
p1174
a(lp1175
F0.78
aF0.08
aF0.52
aF1.0
aaa(lp1176
S'midnight blue'
p1177
a(lp1178
F0.1
aF0.1
aF0.44
aF1.0
aaa(lp1179
S'mint cream'
p1180
a(lp1181
F0.96
aF1.0
aF0.98
aF1.0
aaa(lp1182
S'misty rose'
p1183
a(lp1184
F1.0
aF0.89
aF0.88
aF1.0
aaa(lp1185
S'moccasin'
p1186
a(lp1187
F1.0
aF0.89
aF0.71
aF1.0
aaa(lp1188
S'navajo white'
p1189
a(lp1190
F1.0
aF0.87
aF0.68
aF1.0
aaa(lp1191
S'navy blue'
p1192
a(lp1193
F0.0
aF0.0
aF0.5
aF1.0
aaa(lp1194
S'navy'
p1195
a(lp1196
F0.0
aF0.0
aF0.5
aF1.0
aaa(lp1197
S'old lace'
p1198
a(lp1199
F0.99
aF0.96
aF0.9
aF1.0
aaa(lp1200
S'olive drab'
p1201
a(lp1202
F0.42
aF0.56
aF0.14
aF1.0
aaa(lp1203
S'olive'
p1204
a(lp1205
F0.5
aF0.5
aF0.0
aF1.0
aaa(lp1206
S'orange red'
p1207
a(lp1208
F1.0
aF0.27
aF0.0
aF1.0
aaa(lp1209
S'orange'
p1210
a(lp1211
F1.0
aF0.65
aF0.0
aF1.0
aaa(lp1212
S'orchid'
p1213
a(lp1214
F0.85
aF0.44
aF0.84
aF1.0
aaa(lp1215
S'pale goldenrod'
p1216
a(lp1217
F0.93
aF0.91
aF0.67
aF1.0
aaa(lp1218
S'pale green'
p1219
a(lp1220
F0.6
aF0.98
aF0.6
aF1.0
aaa(lp1221
S'pale turquoise'
p1222
a(lp1223
F0.69
aF0.93
aF0.93
aF1.0
aaa(lp1224
S'pale violet red'
p1225
a(lp1226
F0.86
aF0.44
aF0.58
aF1.0
aaa(lp1227
S'papaya whip'
p1228
a(lp1229
F1.0
aF0.94
aF0.84
aF1.0
aaa(lp1230
S'peach puff'
p1231
a(lp1232
F1.0
aF0.85
aF0.73
aF1.0
aaa(lp1233
S'peru'
p1234
a(lp1235
F0.8
aF0.52
aF0.25
aF1.0
aaa(lp1236
S'plum'
p1237
a(lp1238
F0.87
aF0.63
aF0.87
aF1.0
aaa(lp1239
S'powder blue'
p1240
a(lp1241
F0.69
aF0.88
aF0.9
aF1.0
aaa(lp1242
S'rebecca purple'
p1243
a(lp1244
F0.4
aF0.2
aF0.6
aF1.0
aaa(lp1245
S'rosy brown'
p1246
a(lp1247
F0.74
aF0.56
aF0.56
aF1.0
aaa(lp1248
S'royal blue'
p1249
a(lp1250
F0.25
aF0.41
aF0.88
aF1.0
aaa(lp1251
S'saddle brown'
p1252
a(lp1253
F0.55
aF0.27
aF0.07
aF1.0
aaa(lp1254
S'salmon'
p1255
a(lp1256
F0.98
aF0.5
aF0.45
aF1.0
aaa(lp1257
S'sandy brown'
p1258
a(lp1259
F0.96
aF0.64
aF0.38
aF1.0
aaa(lp1260
S'seashell'
p1261
a(lp1262
F1.0
aF0.96
aF0.93
aF1.0
aaa(lp1263
S'sienna'
p1264
a(lp1265
F0.63
aF0.32
aF0.18
aF1.0
aaa(lp1266
S'silver'
p1267
a(lp1268
F0.75
aF0.75
aF0.75
aF1.0
aaa(lp1269
S'sky blue'
p1270
a(lp1271
F0.53
aF0.81
aF0.92
aF1.0
aaa(lp1272
S'slate blue'
p1273
a(lp1274
F0.42
aF0.35
aF0.8
aF1.0
aaa(lp1275
S'slate gray'
p1276
a(lp1277
F0.44
aF0.5
aF0.56
aF1.0
aaa(lp1278
S'slate grey'
p1279
a(lp1280
F0.44
aF0.5
aF0.56
aF1.0
aaa(lp1281
S'snow'
p1282
a(lp1283
F1.0
aF0.98
aF0.98
aF1.0
aaa(lp1284
S'spring green'
p1285
a(lp1286
F0.0
aF1.0
aF0.5
aF1.0
aaa(lp1287
S'steel blue'
p1288
a(lp1289
F0.27
aF0.51
aF0.71
aF1.0
aaa(lp1290
S'teal'
p1291
a(lp1292
F0.0
aF0.5
aF0.5
aF1.0
aaa(lp1293
S'thistle'
p1294
a(lp1295
F0.85
aF0.75
aF0.85
aF1.0
aaa(lp1296
S'tomato'
p1297
a(lp1298
F1.0
aF0.39
aF0.28
aF1.0
aaa(lp1299
S'turquoise'
p1300
a(lp1301
F0.25
aF0.88
aF0.82
aF1.0
aaa(lp1302
S'violet red'
p1303
a(lp1304
F0.82
aF0.13
aF0.56
aF1.0
aaa(lp1305
S'violet'
p1306
a(lp1307
F0.93
aF0.51
aF0.93
aF1.0
aaa(lp1308
S'web gray'
p1309
a(lp1310
F0.5
aF0.5
aF0.5
aF1.0
aaa(lp1311
S'web green'
p1312
a(lp1313
F0.0
aF0.5
aF0.0
aF1.0
aaa(lp1314
S'web grey'
p1315
a(lp1316
F0.5
aF0.5
aF0.5
aF1.0
aaa(lp1317
S'web maroon'
p1318
a(lp1319
F0.5
aF0.0
aF0.0
aF1.0
aaa(lp1320
S'web purple'
p1321
a(lp1322
F0.5
aF0.0
aF0.5
aF1.0
aaa(lp1323
S'wheat'
p1324
a(lp1325
F0.96
aF0.87
aF0.7
aF1.0
aaa(lp1326
S'white smoke'
p1327
a(lp1328
F0.96
aF0.96
aF0.96
aF1.0
aaa(lp1329
S'x11 gray'
p1330
a(lp1331
F0.75
aF0.75
aF0.75
aF1.0
aaa(lp1332
S'x11 green'
p1333
a(lp1334
F0.0
aF1.0
aF0.0
aF1.0
aaa(lp1335
S'x11 grey'
p1336
a(lp1337
F0.75
aF0.75
aF0.75
aF1.0
aaa(lp1338
S'x11 maroon'
p1339
a(lp1340
F0.69
aF0.19
aF0.38
aF1.0
aaa(lp1341
S'x11 purple'
p1342
a(lp1343
F0.63
aF0.13
aF0.94
aF1.0
aaa(lp1344
S'yellow green'
p1345
a(lp1346
F0.6
aF0.8
aF0.2
aF1.0
aaaaI169
asS'version'
p1347
g51
sS'ampFinal05_model153'
p1348
(idataobj
DataObjShadow
p1349
(dp1350
g24
g1348
sg25
g26
sg27
(lp1351
S'ampFinal05_model153MolDisp1'
p1352
aS'ampFinal05_model153MolDisp2'
p1353
aS'ampFinal05_model153SurfaceDispobj3'
p1354
asg32
(lp1355
g34
aS'C:/Users/eliez/OneDrive/Tesis y titulacion/Antimicrobial_Peptides_QSAR_Prediction_Project/PrediccionNovelPeptides/Modelamiento/05.RLLNKPRKIKFVIIPRKPFKRKSFAIWTKLKLG\\ampFinal05-model153.pdb'
p1356
ag1356
asg36
(dp1357
g38
I1
sg39
S'EC6CA33CBF72454FAE167C5CDDE5F7A5'
p1358
sg41
g855
sg43
I1
sg25
g26
sg44
I1
sg45
g46
sg32
g1355
sg47
I1
sg48
g49
sg50
g51
sg52
(dp1359
g54
(lp1360
sg56
(lp1361
sg58
g59
sg60
(lp1362
sg62
I1
ssg63
S'Ligand_binding_site:Site_and_ribbons_by_PDB_file'
p1363
ssg47
I1
sg65
(lp1364
(idataobj
DispObjShadow
p1365
(dp1366
g69
(dp1367
g71
g72
sg73
I0
sg74
(dp1368
g76
g77
sg81
g82
sg84
g85
sg87
g88
sg89
g90
sg91
g92
ssg93
g72
sg94
g226
sg97
g98
sg99
S'<span style="color:;">User colour rules </span>\n</p><p><span style="color:red;">/*/*/(ALA,VAL,PRO,LEU,ILE </span>\n</p><p>'
p1369
sg101
g72
sg102
g103
sg104
(lp1370
(lp1371
S'blue'
p1372
ag72
aa(lp1373
S'red'
p1374
a(lp1375
NaS'/*/*/(ALA,VAL,PRO,LEU,ILE,MET,PHE,TRP)/*:*'
p1376
aaasg112
g113
ssg24
g1352
sg25
g114
sg47
I0
sg115
(dp1377
g117
g72
sg118
g72
sg119
g72
sg120
I0
sg121
g72
sg122
g72
sg123
g124
sg125
g126
sg127
g128
sg129
(lp1378
sg131
F4.0
sg132
I1
sg133
(lp1379
sg135
g72
sg136
(lp1380
sg138
g92
sg139
I0
sg140
g72
sg141
(lp1381
sg143
I0
sg144
(lp1382
sg146
I0
sg147
(lp1383
sg149
(lp1384
sg151
(lp1385
sg153
(lp1386
sg155
g72
sg156
(lp1387
sg158
I0
sg159
g160
sg161
(lp1388
sg163
g72
sg164
(lp1389
sg166
(lp1390
sg168
I0
sg169
g72
sg170
g72
sg171
(lp1391
sg173
g72
sg174
I00
sg175
I0
sg176
g72
sg128
g83
sg177
I1
sg178
(lp1392
sg180
I0
sg181
g72
sg182
g83
sg183
g72
sg184
g90
sg185
g72
sg186
(lp1393
sg188
g72
sg189
(lp1394
ssg191
(dp1395
g193
F1.0
sg39
S'51E577EF681D44919F69AC2AB60BBEB4'
p1396
sg195
I01
sg196
I0
sg197
I-1
sg47
I0
sg198
I01
sg199
g72
sg200
g201
sg202
I00
sg203
g72
sg204
(dp1397
g206
g207
sg208
I1
sg209
g210
sg211
I0
sg212
g213
sg214
g215
sg216
I6
sssg217
(dp1398
g219
g220
sg221
I1
ssba(idataobj
DispObjShadow
p1399
(dp1400
g69
(dp1401
g71
g72
sg73
I0
sg74
(dp1402
g76
g77
sg81
g82
sg84
g85
sg87
g88
sg89
g90
sg91
g92
ssg93
g72
sg94
g226
sg97
g98
sg99
g72
sg101
g72
sg102
g181
sg104
g228
sg112
g113
ssg24
g1353
sg25
g114
sg47
I0
sg115
(dp1403
g117
g72
sg118
g72
sg119
g72
sg120
I0
sg121
g72
sg122
g72
sg123
g124
sg125
g126
sg127
g128
sg129
(lp1404
sg131
F4.0
sg132
I1
sg133
(lp1405
sg135
g72
sg136
(lp1406
sg138
g92
sg139
I0
sg140
g72
sg141
(lp1407
sg143
I0
sg144
(lp1408
sg146
I0
sg147
(lp1409
sg149
(lp1410
sg151
(lp1411
sg153
(lp1412
sg155
g72
sg156
(lp1413
sg158
I0
sg159
g160
sg161
(lp1414
sg163
g72
sg164
(lp1415
sg166
(lp1416
sg168
I0
sg169
g72
sg170
g72
sg171
(lp1417
sg173
g72
sg174
I00
sg175
I0
sg176
g72
sg128
g92
sg177
I1
sg178
(lp1418
sg180
I0
sg181
g72
sg182
g92
sg183
g72
sg184
g90
sg185
g72
sg186
(lp1419
sg188
g72
sg189
(lp1420
ssg191
(dp1421
g193
F1.0
sg39
S'F432AC8199F04F95BFD0BF09504FA779'
p1422
sg195
I01
sg196
I0
sg197
I-1
sg47
I0
sg198
I01
sg199
g72
sg200
g249
sg202
I00
sg203
g72
sg204
(dp1423
g206
g207
sg208
I1
sg209
g210
sg211
I0
sg212
g213
sg214
g215
sg216
I6
sssg217
(dp1424
g219
g252
sg221
I1
ssba(idataobj
DispObjShadow
p1425
(dp1426
g69
(dp1427
g71
g72
sg73
I0
sg74
(dp1428
g76
g77
sg81
g82
sg84
g85
sg87
g88
sg89
g90
sg91
g92
ssg93
g72
sg94
g226
sg97
g98
sg99
g72
sg101
g72
sg102
g257
sg104
g228
sg112
g113
ssg24
g1354
sg25
g258
sg47
I0
sg115
(dp1429
g117
g72
sg118
g72
sg119
g72
sg120
I0
sg121
g72
sg122
g72
sg123
g124
sg125
g126
sg127
g83
sg129
(lp1430
sg131
F4.0
sg132
I1
sg133
(lp1431
sg135
g72
sg136
(lp1432
sg138
g92
sg139
I0
sg140
g72
sg141
(lp1433
sg143
I0
sg144
(lp1434
sg146
I0
sg147
(lp1435
sg149
(lp1436
sg151
(lp1437
sg153
(lp1438
sg155
g72
sg156
(lp1439
sg158
I0
sg159
g160
sg161
(lp1440
sg163
g72
sg164
(lp1441
sg166
(lp1442
sg168
I0
sg169
g72
sg170
g72
sg171
(lp1443
sg173
g72
sg174
I00
sg175
I0
sg176
g72
sg128
g72
sg177
I1
sg178
(lp1444
sg180
I0
sg181
g72
sg182
g83
sg183
g72
sg184
g90
sg185
g72
sg186
(lp1445
sg188
g72
sg189
(lp1446
ssg191
(dp1447
g193
F1.0
sg278
g279
sg39
S'31E1A4DD41954C6AB3C118A7DF5920AC'
p1448
sg196
I0
sg47
I0
sg281
g282
sg199
g72
sg200
g283
ssg217
(dp1449
g117
g72
sg118
g72
sg119
g72
sg120
I0
sg121
g72
sg122
g72
sg123
g124
sg125
g126
sg127
g83
sg129
(lp1450
sg131
F4.0
sg132
I1
sg133
(lp1451
sg135
g72
sg136
(lp1452
sg138
g92
sg139
I0
sg140
g72
sg141
(lp1453
sg143
g1354
sg144
(lp1454
sg146
I0
sg147
(lp1455
sg149
(lp1456
sg151
(lp1457
sg153
(lp1458
sg155
g72
sg156
(lp1459
sg158
I0
sg159
g160
sg161
(lp1460
sg163
g72
sg164
(lp1461
sg166
(lp1462
sg168
I0
sg169
g72
sg170
g72
sg171
(lp1463
sg173
g72
sg174
I00
sg175
I0
sg176
g72
sg128
g72
sg177
I1
sg178
(lp1464
sg180
I0
sg181
g72
sg182
g83
sg183
g72
sg184
g90
sg185
g72
sg186
(lp1465
sg188
g72
sg189
(lp1466
ssbasbsS'mouse_bindings'
p1467
(dp1468
S'translate-z'
p1469
(dp1470
S'shift'
p1471
I0
sS'alt'
p1472
I0
sS'mouse_button'
p1473
S'middle'
p1474
sS'key'
p1475
S'z'
p1476
sS'ctrl'
p1477
I0
ssS'object-rotate-xy'
p1478
(dp1479
g1471
I0
sg1472
I0
sg1473
S'left'
p1480
sg1475
S'x'
p1481
sg1477
I0
ssS'rotate-xy'
p1482
(dp1483
g1471
I0
sg1472
I0
sg1473
g1480
sg1475
S' '
p1484
sg1477
I0
ssS'object-translate-z'
p1485
(dp1486
g1471
I1
sg1472
I0
sg1473
g1474
sg1475
g1481
sg1477
I0
ssS'zoom'
p1487
(dp1488
g1471
I0
sg1472
I0
sg1473
g1474
sg1475
g1484
sg1477
I0
ssS'translate-xy'
p1489
(dp1490
g1471
I1
sg1472
I0
sg1473
g1474
sg1475
g1484
sg1477
I0
ssS'clip-width'
p1491
(dp1492
g1471
I0
sg1472
I0
sg1473
g1474
sg1475
S'c'
p1493
sg1477
I0
ssS'rotate-z'
p1494
(dp1495
g1471
I1
sg1472
I0
sg1473
g1480
sg1475
g1484
sg1477
I0
ssS'object-rotate-z'
p1496
(dp1497
g1471
I1
sg1472
I0
sg1473
g1480
sg1475
g1481
sg1477
I0
ssS'object-translate-xy'
p1498
(dp1499
g1471
I0
sg1472
I0
sg1473
g1474
sg1475
g1481
sg1477
I0
sssS'picture_wizard'
p1500
(dp1501
S'recentre_after_wizard'
p1502
I1
sS'keep_display_objects'
p1503
I0
sS'recentre'
p1504
I0
sS'hide_unselected_dataobj'
p1505
I0
sS'show_wizard_choices'
p1506
I0
sS'default_drawing_style'
p1507
S'Ligand_binding_site:Site_and_ribbons_by_PDB_file'
p1508
ssS'Legends&Images'
p1509
(idataobj
DataObjShadow
p1510
(dp1511
g24
g1509
sg25
S'GL2dScreen'
p1512
sg27
(lp1513
S'Legend'
p1514
asg32
g72
sg36
(dp1515
g38
I1
sg39
S'8DEB8A53D8A44A6AB4EE71310803B5D5'
p1516
sg25
g1512
sg45
g1514
sg32
(lp1517
g72
ag72
ag72
asg47
I1
sg50
S'2.10.11'
p1518
ssg47
I1
sg65
(lp1519
(idataobj
DispObjShadow
p1520
(dp1521
g47
I1
sg25
g1514
sg191
(dp1522
g193
F1.0
sS'selection'
p1523
S'<!DOCTYPE HTML PUBLIC "-//W3C//DTD HTML 4.0//EN" "http://www.w3.org/TR/REC-html40/strict.dtd">\n<html><head><meta name="qrichtext" content="1" /><style type="text/css">\np, li { white-space: pre-wrap; }\n</style></head><body style=" font-family:\'MS Shell Dlg 2\'; font-size:8pt; font-weight:400; font-style:normal;">\n<p style=" margin-top:0px; margin-bottom:0px; margin-left:0px; margin-right:0px; -qt-block-indent:0; text-indent:0px;"><span style=" font-size:14pt; font-weight:600;">\t   NPEP551925:</span></p>\n<p style=" margin-top:0px; margin-bottom:0px; margin-left:0px; margin-right:0px; -qt-block-indent:0; text-indent:0px;"><span style=" font-size:14pt; font-weight:600;">WRRLKLFKTSKVKYIYKKKGSLVK</span></p>\n<p style="-qt-paragraph-type:empty; margin-top:0px; margin-bottom:0px; margin-left:0px; margin-right:0px; -qt-block-indent:0; text-indent:0px; font-size:14pt; font-weight:600;"><br /></p>\n<p style="-qt-paragraph-type:empty; margin-top:0px; margin-bottom:0px; margin-left:0px; margin-right:0px; -qt-block-indent:0; text-indent:0px;"><br /></p></body></html>'
p1524
sg39
S'E5811CC3791849078E2068568B272D9A'
p1525
sg196
I0
sg47
I1
sg199
g72
sS'position'
p1526
(lp1527
F0.3
aF0.01
asg200
g72
ssg24
g1514
sbasbsS'applications'
p1528
(dp1529
S'picture_wizard'
p1530
(dp1531
g1502
I1
sg1503
I0
sg1504
I0
sg1505
I0
sg1506
I0
sg1507
g1508
ssS'Superpose'
p1532
(dp1533
S'fixed_mask_colour'
p1534
S'blue'
p1535
sS'monomer_keep_matches'
p1536
I0
sS'apply_interactive_all'
p1537
I0
sS'close_atoms_res_cutoff'
p1538
F2.0
sS'show_mask'
p1539
I0
sS'close_atoms_cutoff'
p1540
F0.5
sS'close_atoms_initial_global'
p1541
I0
sS'show_equiv_mol'
p1542
S'model2'
p1543
sS'show_equivalents'
p1544
I0
sS'close_atoms_central_atom'
p1545
S' CA '
p1546
sS'show_distances'
p1547
I1
sS'moving_mask_colour'
p1548
S'dark purple'
p1549
sS'superposeModels'
p1550
(dp1551
S'model3'
p1552
(dp1553
S'matches'
p1554
(lp1555
sS'on'
p1556
I1
sS'MolData_name'
p1557
g1552
sS'selection'
p1558
S'all'
p1559
sS'fixed_MolData_name'
p1560
S'model1'
p1561
ssg1543
(dp1562
g1554
(lp1563
(dp1564
g1556
I1
sS'qualifier'
p1565
g72
sS'sele2'
p1566
g72
sS'sele1'
p1567
g72
sS'mode'
p1568
S'range'
p1569
sS'close'
p1570
I0
sasg1556
I1
sg1557
g1543
sg1558
S'all'
p1571
sg1560
g1561
ssg1561
(dp1572
g1554
(lp1573
sg1556
I1
sg1557
g1561
sg1558
S'all'
p1574
sg1560
g1561
ssS'model5'
p1575
(dp1576
g1554
(lp1577
sg1556
I1
sg1557
g1575
sg1558
S'all'
p1578
sg1560
g1561
ssS'model4'
p1579
(dp1580
g1554
(lp1581
sg1556
I1
sg1557
g1579
sg1558
S'all'
p1582
sg1560
g1561
sssS'selected_atoms_mode'
p1583
S'catrace'
p1584
sS'conn_colour'
p1585
S'black'
p1586
sS'fixed'
p1587
g1561
sS'method'
p1588
S'close'
p1589
sS'selected_atoms_selection'
p1590
(lp1591
S'CA'
p1592
aS'CB'
p1593
asssS'Data_list'
p1594
(lp1595
S'ampFinal03_model24'
p1596
aS'ampFinal04_model43'
p1597
ag1348
ag21
ag1509
asg1596
(idataobj
DataObjShadow
p1598
(dp1599
g24
g1596
sg25
g26
sg27
(lp1600
S'ampFinal03_model24MolDisp1'
p1601
aS'ampFinal03_model24MolDisp2'
p1602
aS'ampFinal03_model24SurfaceDispobj3'
p1603
asg32
(lp1604
g34
aS'C:/Users/eliez/OneDrive/Tesis y titulacion/Antimicrobial_Peptides_QSAR_Prediction_Project/PrediccionNovelPeptides/Modelamiento/03.GIRIPKATSRKRYLKKIFEKKQAFVLFRFIP\\ampFinal03-model24.pdb'
p1605
ag1605
asg36
(dp1606
g38
I1
sg39
S'CF24854287C449599A63681610477300'
p1607
sg41
g849
sg43
I1
sg25
g26
sg44
I1
sg45
g46
sg32
g1604
sg47
I1
sg48
g49
sg50
g51
sg52
(dp1608
g54
(lp1609
sg56
(lp1610
sg58
g59
sg60
(lp1611
sg62
I1
ssg63
S'Ligand_binding_site:Site_and_ribbons_by_PDB_file'
p1612
ssg47
I1
sg65
(lp1613
(idataobj
DispObjShadow
p1614
(dp1615
g69
(dp1616
g71
g72
sg73
I0
sg74
(dp1617
g76
g77
sg81
g82
sg84
g85
sg87
g88
sg89
g90
sg91
g92
ssg93
g72
sg94
(lp1618
g96
asg97
g98
sg99
S'<span style="color:;">User colour rules </span>\n</p><p><span style="color:red;">/*/*/(ALA,VAL,PRO,LEU,ILE </span>\n</p><p>'
p1619
sg101
g72
sg102
g103
sg104
(lp1620
(lp1621
S'blue'
p1622
ag72
aa(lp1623
S'red'
p1624
a(lp1625
NaS'/*/*/(ALA,VAL,PRO,LEU,ILE,MET,PHE,TRP)/*:*'
p1626
aaasg112
g113
ssg24
g1601
sg25
g114
sg47
I0
sg115
(dp1627
g117
g72
sg118
g72
sg119
g72
sg120
I0
sg121
g72
sg122
g72
sg123
g124
sg125
g126
sg127
g128
sg129
(lp1628
sg131
F4.0
sg132
I1
sg133
(lp1629
sg135
g72
sg136
(lp1630
sg138
g92
sg139
I0
sg140
g72
sg141
(lp1631
sg143
I0
sg144
(lp1632
sg146
I0
sg147
(lp1633
sg149
(lp1634
sg151
(lp1635
sg153
(lp1636
sg155
g72
sg156
(lp1637
sg158
I0
sg159
g160
sg161
(lp1638
sg163
g72
sg164
(lp1639
sg166
(lp1640
sg168
I0
sg169
g72
sg170
g72
sg171
(lp1641
sg173
g72
sg174
I00
sg175
I0
sg176
g72
sg128
g83
sg177
I1
sg178
(lp1642
sg180
I0
sg181
g72
sg182
g83
sg183
g72
sg184
g90
sg185
g72
sg186
(lp1643
sg188
g72
sg189
(lp1644
ssg191
(dp1645
g193
F1.0
sg39
S'85DD076FDB964E669E47F14FCA73AEA4'
p1646
sg195
I01
sg196
I0
sg197
I-1
sg47
I0
sg198
I01
sg199
g72
sg200
g201
sg202
I00
sg203
g72
sg204
(dp1647
g206
g207
sg208
I1
sg209
g210
sg211
I0
sg212
g213
sg214
g215
sg216
I6
sssg217
(dp1648
g219
g220
sg221
I1
ssba(idataobj
DispObjShadow
p1649
(dp1650
g69
(dp1651
g71
g72
sg73
I0
sg74
(dp1652
g76
g77
sg81
g82
sg84
g85
sg87
g88
sg89
g90
sg91
g92
ssg93
g72
sg94
g226
sg97
g98
sg99
g72
sg101
g72
sg102
g181
sg104
g228
sg112
g113
ssg24
g1602
sg25
g114
sg47
I0
sg115
(dp1653
g117
g72
sg118
g72
sg119
g72
sg120
I0
sg121
g72
sg122
g72
sg123
g124
sg125
g126
sg127
g128
sg129
(lp1654
sg131
F4.0
sg132
I1
sg133
(lp1655
sg135
g72
sg136
(lp1656
sg138
g92
sg139
I0
sg140
g72
sg141
(lp1657
sg143
I0
sg144
(lp1658
sg146
I0
sg147
(lp1659
sg149
(lp1660
sg151
(lp1661
sg153
(lp1662
sg155
g72
sg156
(lp1663
sg158
I0
sg159
g160
sg161
(lp1664
sg163
g72
sg164
(lp1665
sg166
(lp1666
sg168
I0
sg169
g72
sg170
g72
sg171
(lp1667
sg173
g72
sg174
I00
sg175
I0
sg176
g72
sg128
g92
sg177
I1
sg178
(lp1668
sg180
I0
sg181
g72
sg182
g92
sg183
g72
sg184
g90
sg185
g72
sg186
(lp1669
sg188
g72
sg189
(lp1670
ssg191
(dp1671
g193
F1.0
sg39
S'C84A0295517D4EB39294A3A17E252B18'
p1672
sg195
I01
sg196
I0
sg197
I-1
sg47
I0
sg198
I01
sg199
g72
sg200
g249
sg202
I00
sg203
g72
sg204
(dp1673
g206
g207
sg208
I1
sg209
g210
sg211
I0
sg212
g213
sg214
g215
sg216
I6
sssg217
(dp1674
g219
g252
sg221
I1
ssba(idataobj
DispObjShadow
p1675
(dp1676
g69
(dp1677
g71
g72
sg73
I0
sg74
(dp1678
g76
g77
sg81
g82
sg84
g85
sg87
g88
sg89
g90
sg91
g92
ssg93
g72
sg94
g226
sg97
g98
sg99
g72
sg101
g72
sg102
g257
sg104
g228
sg112
g113
ssg24
g1603
sg25
g258
sg47
I0
sg115
(dp1679
g117
g72
sg118
g72
sg119
g72
sg120
I0
sg121
g72
sg122
g72
sg123
g124
sg125
g126
sg127
g83
sg129
(lp1680
sg131
F4.0
sg132
I1
sg133
(lp1681
sg135
g72
sg136
(lp1682
sg138
g92
sg139
I0
sg140
g72
sg141
(lp1683
sg143
I0
sg144
(lp1684
sg146
I0
sg147
(lp1685
sg149
(lp1686
sg151
(lp1687
sg153
(lp1688
sg155
g72
sg156
(lp1689
sg158
I0
sg159
g160
sg161
(lp1690
sg163
g72
sg164
(lp1691
sg166
(lp1692
sg168
I0
sg169
g72
sg170
g72
sg171
(lp1693
sg173
g72
sg174
I00
sg175
I0
sg176
g72
sg128
g72
sg177
I1
sg178
(lp1694
sg180
I0
sg181
g72
sg182
g83
sg183
g72
sg184
g90
sg185
g72
sg186
(lp1695
sg188
g72
sg189
(lp1696
ssg191
(dp1697
g193
F1.0
sg278
g279
sg39
S'F92EB1B8641745F7BFD6B769C3FF4403'
p1698
sg196
I0
sg47
I0
sg281
g282
sg199
g72
sg200
g283
ssg217
(dp1699
g117
g72
sg118
g72
sg119
g72
sg120
I0
sg121
g72
sg122
g72
sg123
g124
sg125
g126
sg127
g83
sg129
(lp1700
sg131
F4.0
sg132
I1
sg133
(lp1701
sg135
g72
sg136
(lp1702
sg138
g92
sg139
I0
sg140
g72
sg141
(lp1703
sg143
g1603
sg144
(lp1704
sg146
I0
sg147
(lp1705
sg149
(lp1706
sg151
(lp1707
sg153
(lp1708
sg155
g72
sg156
(lp1709
sg158
I0
sg159
g160
sg161
(lp1710
sg163
g72
sg164
(lp1711
sg166
(lp1712
sg168
I0
sg169
g72
sg170
g72
sg171
(lp1713
sg173
g72
sg174
I00
sg175
I0
sg176
g72
sg128
g72
sg177
I1
sg178
(lp1714
sg180
I0
sg181
g72
sg182
g83
sg183
g72
sg184
g90
sg185
g72
sg186
(lp1715
sg188
g72
sg189
(lp1716
ssbasbsS'ModelInfo'
p1717
(dp1718
S'user_file'
p1719
(dp1720
S'generic'
p1721
(lp1722
S'dotCCP4MG'
p1723
aS'generic.ccp4mg'
p1724
aS'C:\\Users\\eliez\\CCP4MG2\\generic.ccp4mg'
p1725
asssS'gui_params'
p1726
(dp1727
S'background_colour'
p1728
(lp1729
I255
aI255
aI255
asS'defaultObjBodyVisibility'
p1730
S'open_all'
p1731
sS'main_toolbar'
p1732
(dp1733
S'toolbar_icon_size'
p1734
S'medium'
p1735
sS'toolbar_loaded_actions'
p1736
(lp1737
S'open'
p1738
aS'download'
p1739
aS'save_status_to_file'
p1740
aS'screenshot'
p1741
aS'view_back'
p1742
aS'view_forward'
p1743
aS'display_back'
p1744
aS'display_forward'
p1745
aS'recentre'
p1746
aS'centreOn'
p1747
aS'clearLabels'
p1748
aS'fog_on'
p1749
aS'slab_on'
p1750
aS'superpose'
p1751
aS'open_movie'
p1752
aS'new_movie'
p1753
aS'preferences'
p1754
aS'picture_wizard'
p1755
aS'PDB search'
p1756
aS'Geometry'
p1757
aS'Glycan viewer'
p1758
aS'Download electron density'
p1759
aS'Pisa structure analysis'
p1760
aS'ProSMART analysis'
p1761
aS'Sequence viewer'
p1762
aS'Simpler Display Table'
p1763
asS'toolbar_style'
p1764
S'icon_only'
p1765
ssS'last_directory'
p1766
S'C:/Users/eliez/OneDrive/Tesis y titulacion/Antimicrobial_Peptides_QSAR_Prediction_Project/PrediccionNovelPeptides/Modelamiento/06.WRRLKLFKTSKVKYIYKKKGSLVK'
p1767
sS'rockParams'
p1768
(dp1769
S'rollorientation'
p1770
S'y'
p1771
sS'rollspeed'
p1772
F0.5
sS'rockspeed'
p1773
F0.5
sS'rockangle'
p1774
I20
ssS'show_scale'
p1775
I0
sS'centre_mode'
p1776
I0
sS'show_axes'
p1777
I0
ssS'AllModelInfo'
p1778
(dp1779
g1596
(iModelInfo
ModInfo
p1780
(dp1781
S'ccp4mg_version'
p1782
g51
sS'user_colour_schemes'
p1783
(dp1784
S'hidrop'
p1785
(lp1786
(lp1787
S'blue'
p1788
ag72
aa(lp1789
S'red'
p1790
a(lp1791
NaS'/*/*/(ALA,VAL,PRO,LEU,ILE,MET,PHE,TRP)/*:*'
p1792
aaassS'pdbfile'
p1793
g1605
sbsg21
(iModelInfo
ModInfo
p1794
(dp1795
g1782
g51
sg1793
g35
sbsg1597
(iModelInfo
ModInfo
p1796
(dp1797
g1782
g51
sg1783
(dp1798
S'hidropall'
p1799
(lp1800
(lp1801
S'blue'
p1802
ag72
aa(lp1803
S'red'
p1804
a(lp1805
NaS'/*/*/(ALA,VAL,PRO,LEU,ILE,MET,PHE,TRP)/*:*'
p1806
aaassg1793
S'C:/Users/eliez/OneDrive/Tesis y titulacion/Antimicrobial_Peptides_QSAR_Prediction_Project/PrediccionNovelPeptides/Modelamiento/04.LFILNRAKRPKKSKIGLPRKITK\\ampFinal04-model43.pdb'
p1807
sbsg1348
(iModelInfo
ModInfo
p1808
(dp1809
g1782
g51
sg1793
g1356
sbssS'light'
p1810
(dp1811
I0
(dp1812
g1526
(F0.0
F0.0
F60.0
tp1813
sS'on'
p1814
I1
sS'specular'
p1815
(F1.0
F1.0
F1.0
tp1816
sS'diffuse'
p1817
(F1.0
F1.0
F1.0
tp1818
sS'ambient'
p1819
(F0.0
F0.0
F0.0
tp1820
ssS'nLights'
p1821
I1
ssS'fonts'
p1822
(dp1823
S'atom_label'
p1824
(dp1825
S'size'
p1826
I13
sS'underline'
p1827
I0
sS'weight'
p1828
S'normal'
p1829
sS'family'
p1830
csip
_unpickle_type
p1831
(S'PyQt4.QtCore'
p1832
S'QString'
p1833
(VMS Shell Dlg 2
p1834
tp1835
tp1836
Rp1837
sS'slant'
p1838
S'r'
p1839
ssS'applicationFont'
p1840
(dp1841
g1826
I8
sg1827
I0
sg1828
g1829
sg1830
g1831
(g1832
S'QString'
p1842
(VMS Shell Dlg 2
p1843
tp1844
tp1845
Rp1846
sg1838
g1839
ssS'annotation'
p1847
(dp1848
g1826
I18
sg1827
I0
sg1828
g1829
sg1830
g1831
(g1832
S'QString'
p1849
(VMS Shell Dlg 2
p1850
tp1851
tp1852
Rp1853
sg1838
g1839
ssS'pick_atom_label'
p1854
(dp1855
g1826
I13
sg1827
I0
sg1828
g1829
sg1830
g1831
(g1832
S'QString'
p1856
(VMS Shell Dlg 2
p1857
tp1858
tp1859
Rp1860
sg1838
g1839
ssS'legend'
p1861
(dp1862
g1826
I32
sg1827
I0
sg1828
g1829
sg1830
g1831
(g1832
S'QString'
p1863
(VMS Shell Dlg 2
p1864
tp1865
tp1866
Rp1867
sg1838
g1839
sssg1597
(idataobj
DataObjShadow
p1868
(dp1869
g24
g1597
sg25
g26
sg27
(lp1870
S'ampFinal04_model43MolDisp1'
p1871
aS'ampFinal04_model43MolDisp2'
p1872
aS'ampFinal04_model43SurfaceDispobj3'
p1873
asg32
(lp1874
g34
ag1807
ag1807
asg36
(dp1875
g38
I1
sg39
S'51127013626E4367BAE56C62F03ACA78'
p1876
sg41
g852
sg43
I1
sg25
g26
sg44
I1
sg45
g46
sg32
g1874
sg47
I1
sg48
g49
sg50
g51
sg52
(dp1877
g54
(lp1878
sg56
(lp1879
sg58
g59
sg60
(lp1880
sg62
I1
ssg63
S'Ligand_binding_site:Site_and_ribbons_by_PDB_file'
p1881
ssg47
I1
sg65
(lp1882
(idataobj
DispObjShadow
p1883
(dp1884
g69
(dp1885
g71
g72
sg73
I0
sg74
(dp1886
g76
g77
sg81
g82
sg84
g85
sg87
g88
sg89
g90
sg91
g92
ssg93
g72
sg94
(lp1887
S'hidropall'
p1888
aS'ampFinal04_model43'
p1889
asg97
g98
sg99
S'<span style="color:;">User colour rules </span>\n</p><p><span style="color:red;">/*/*/(ALA,VAL,PRO,LEU,ILE </span>\n</p><p>'
p1890
sg101
g72
sg102
g103
sg104
g1800
sg112
g113
ssg24
g1871
sg25
g114
sg47
I0
sg115
(dp1891
g117
g72
sg118
g72
sg119
g72
sg120
I0
sg121
g72
sg122
g72
sg123
g124
sg125
g126
sg127
g128
sg129
(lp1892
sg131
F4.0
sg132
I1
sg133
(lp1893
sg135
g72
sg136
(lp1894
sg138
g92
sg139
I0
sg140
g72
sg141
(lp1895
sg143
I0
sg144
(lp1896
sg146
I0
sg147
(lp1897
sg149
(lp1898
sg151
(lp1899
sg153
(lp1900
sg155
g72
sg156
(lp1901
sg158
I0
sg159
g160
sg161
(lp1902
sg163
g72
sg164
(lp1903
sg166
(lp1904
sg168
I0
sg169
g72
sg170
g72
sg171
(lp1905
sg173
g72
sg174
I00
sg175
I0
sg176
g72
sg128
g83
sg177
I1
sg178
(lp1906
sg180
I0
sg181
g72
sg182
g83
sg183
g72
sg184
g90
sg185
g72
sg186
(lp1907
sg188
g72
sg189
(lp1908
ssg191
(dp1909
g193
F1.0
sg39
S'B9DDC050A091435A83288D204F4A746A'
p1910
sg195
I01
sg196
I0
sg197
I-1
sg47
I0
sg198
I01
sg199
g72
sg200
g201
sg202
I00
sg203
g72
sg204
(dp1911
g206
g207
sg208
I1
sg209
g210
sg211
I0
sg212
g213
sg214
g215
sg216
I6
sssg217
(dp1912
g219
g220
sg221
I1
ssba(idataobj
DispObjShadow
p1913
(dp1914
g69
(dp1915
g71
g72
sg73
I0
sg74
(dp1916
g76
g77
sg81
g82
sg84
g85
sg87
g88
sg89
g90
sg91
g92
ssg93
g72
sg94
g226
sg97
g98
sg99
g72
sg101
g72
sg102
g181
sg104
g228
sg112
g113
ssg24
g1872
sg25
g114
sg47
I0
sg115
(dp1917
g117
g72
sg118
g72
sg119
g72
sg120
I0
sg121
g72
sg122
g72
sg123
g124
sg125
g126
sg127
g128
sg129
(lp1918
sg131
F4.0
sg132
I1
sg133
(lp1919
sg135
g72
sg136
(lp1920
sg138
g92
sg139
I0
sg140
g72
sg141
(lp1921
sg143
I0
sg144
(lp1922
sg146
I0
sg147
(lp1923
sg149
(lp1924
sg151
(lp1925
sg153
(lp1926
sg155
g72
sg156
(lp1927
sg158
I0
sg159
g160
sg161
(lp1928
sg163
g72
sg164
(lp1929
sg166
(lp1930
sg168
I0
sg169
g72
sg170
g72
sg171
(lp1931
sg173
g72
sg174
I00
sg175
I0
sg176
g72
sg128
g92
sg177
I1
sg178
(lp1932
sg180
I0
sg181
g72
sg182
g92
sg183
g72
sg184
g90
sg185
g72
sg186
(lp1933
sg188
g72
sg189
(lp1934
ssg191
(dp1935
g193
F1.0
sg39
S'D04E5CBD360D472F97A23CEBD7F290FF'
p1936
sg195
I01
sg196
I0
sg197
I-1
sg47
I0
sg198
I01
sg199
g72
sg200
g249
sg202
I00
sg203
g72
sg204
(dp1937
g206
g207
sg208
I1
sg209
g210
sg211
I0
sg212
g213
sg214
g215
sg216
I6
sssg217
(dp1938
g219
g252
sg221
I1
ssba(idataobj
DispObjShadow
p1939
(dp1940
g69
(dp1941
g71
g72
sg73
I0
sg74
(dp1942
g76
g77
sg81
g82
sg84
g85
sg87
g88
sg89
g90
sg91
g92
ssg93
g72
sg94
g226
sg97
g98
sg99
g72
sg101
g72
sg102
g257
sg104
g228
sg112
g113
ssg24
g1873
sg25
g258
sg47
I0
sg115
(dp1943
g117
g72
sg118
g72
sg119
g72
sg120
I0
sg121
g72
sg122
g72
sg123
g124
sg125
g126
sg127
g83
sg129
(lp1944
sg131
F4.0
sg132
I1
sg133
(lp1945
sg135
g72
sg136
(lp1946
sg138
g92
sg139
I0
sg140
g72
sg141
(lp1947
sg143
I0
sg144
(lp1948
sg146
I0
sg147
(lp1949
sg149
(lp1950
sg151
(lp1951
sg153
(lp1952
sg155
g72
sg156
(lp1953
sg158
I0
sg159
g160
sg161
(lp1954
sg163
g72
sg164
(lp1955
sg166
(lp1956
sg168
I0
sg169
g72
sg170
g72
sg171
(lp1957
sg173
g72
sg174
I00
sg175
I0
sg176
g72
sg128
g72
sg177
I1
sg178
(lp1958
sg180
I0
sg181
g72
sg182
g83
sg183
g72
sg184
g90
sg185
g72
sg186
(lp1959
sg188
g72
sg189
(lp1960
ssg191
(dp1961
g193
F1.0
sg278
g279
sg39
S'8685766C6C1F494CBC8DA2FF522A50ED'
p1962
sg196
I0
sg47
I0
sg281
g282
sg199
g72
sg200
g283
ssg217
(dp1963
g117
g72
sg118
g72
sg119
g72
sg120
I0
sg121
g72
sg122
g72
sg123
g124
sg125
g126
sg127
g83
sg129
(lp1964
sg131
F4.0
sg132
I1
sg133
(lp1965
sg135
g72
sg136
(lp1966
sg138
g92
sg139
I0
sg140
g72
sg141
(lp1967
sg143
g1873
sg144
(lp1968
sg146
I0
sg147
(lp1969
sg149
(lp1970
sg151
(lp1971
sg153
(lp1972
sg155
g72
sg156
(lp1973
sg158
I0
sg159
g160
sg161
(lp1974
sg163
g72
sg164
(lp1975
sg166
(lp1976
sg168
I0
sg169
g72
sg170
g72
sg171
(lp1977
sg173
g72
sg174
I00
sg175
I0
sg176
g72
sg128
g72
sg177
I1
sg178
(lp1978
sg180
I0
sg181
g72
sg182
g83
sg183
g72
sg184
g90
sg185
g72
sg186
(lp1979
sg188
g72
sg189
(lp1980
ssbasbsS'pick_labels'
p1981
(dp1982
S'max_labels'
p1983
I20
sg211
I0
sg216
I6
sg206
(lp1984
I0
aI0
aI0
aI1
aI1
aI1
aI1
aI0
aI0
aI0
aI0
aI0
aI0
aI0
aI0
aI0
assS'file_viewer'
p1985
(dp1986
S'supported_plugins'
p1987
(dp1988
ssS'windowGeometry'
p1989
g1831
(g1832
S'QByteArray'
p1990
(S'\x01\xd9\xd0\xcb\x00\x01\x00\x00\xff\xff\xff\xf7\xff\xff\xff\xf7\x00\x00\x07\x88\x00\x00\x04\x04\x00\x00\x00=\x00\x00\x00?\x00\x00\x06i\x00\x00\x03\xc0\x00\x00\x00\x00\x02\x00'
p1991
tp1992
tp1993
Rp1994
s.